
Perifericos.elf:     file format elf32-littlearm

Sections:
Idx Name          Size      VMA       LMA       File off  Algn
  0 .isr_vector   000001c4  08000000  08000000  00010000  2**0
                  CONTENTS, ALLOC, LOAD, READONLY, DATA
  1 .text         000048d4  080001d0  080001d0  000101d0  2**4
                  CONTENTS, ALLOC, LOAD, READONLY, CODE
  2 .rodata       0000010c  08004aa4  08004aa4  00014aa4  2**2
                  CONTENTS, ALLOC, LOAD, READONLY, DATA
  3 .ARM.extab    00000000  08004bb0  08004bb0  000200c0  2**0
                  CONTENTS
  4 .ARM          00000008  08004bb0  08004bb0  00014bb0  2**2
                  CONTENTS, ALLOC, LOAD, READONLY, DATA
  5 .preinit_array 00000000  08004bb8  08004bb8  000200c0  2**0
                  CONTENTS, ALLOC, LOAD, DATA
  6 .init_array   00000004  08004bb8  08004bb8  00014bb8  2**2
                  CONTENTS, ALLOC, LOAD, DATA
  7 .fini_array   00000004  08004bbc  08004bbc  00014bbc  2**2
                  CONTENTS, ALLOC, LOAD, DATA
  8 .data         000000c0  20000000  08004bc0  00020000  2**2
                  CONTENTS, ALLOC, LOAD, DATA
  9 .bss          000002cc  200000c0  08004c80  000200c0  2**2
                  ALLOC
 10 ._user_heap_stack 00000604  2000038c  08004c80  0002038c  2**0
                  ALLOC
 11 .ARM.attributes 00000030  00000000  00000000  000200c0  2**0
                  CONTENTS, READONLY
 12 .comment      00000053  00000000  00000000  000200f0  2**0
                  CONTENTS, READONLY
 13 .debug_frame  000005e4  00000000  00000000  00020144  2**2
                  CONTENTS, READONLY, DEBUGGING, OCTETS

Disassembly of section .text:

080001d0 <__do_global_dtors_aux>:
 80001d0:	b510      	push	{r4, lr}
 80001d2:	4c05      	ldr	r4, [pc, #20]	; (80001e8 <__do_global_dtors_aux+0x18>)
 80001d4:	7823      	ldrb	r3, [r4, #0]
 80001d6:	b933      	cbnz	r3, 80001e6 <__do_global_dtors_aux+0x16>
 80001d8:	4b04      	ldr	r3, [pc, #16]	; (80001ec <__do_global_dtors_aux+0x1c>)
 80001da:	b113      	cbz	r3, 80001e2 <__do_global_dtors_aux+0x12>
 80001dc:	4804      	ldr	r0, [pc, #16]	; (80001f0 <__do_global_dtors_aux+0x20>)
 80001de:	f3af 8000 	nop.w
 80001e2:	2301      	movs	r3, #1
 80001e4:	7023      	strb	r3, [r4, #0]
 80001e6:	bd10      	pop	{r4, pc}
 80001e8:	200000c0 	.word	0x200000c0
 80001ec:	00000000 	.word	0x00000000
 80001f0:	08004a8c 	.word	0x08004a8c

080001f4 <frame_dummy>:
 80001f4:	b508      	push	{r3, lr}
 80001f6:	4b03      	ldr	r3, [pc, #12]	; (8000204 <frame_dummy+0x10>)
 80001f8:	b11b      	cbz	r3, 8000202 <frame_dummy+0xe>
 80001fa:	4903      	ldr	r1, [pc, #12]	; (8000208 <frame_dummy+0x14>)
 80001fc:	4803      	ldr	r0, [pc, #12]	; (800020c <frame_dummy+0x18>)
 80001fe:	f3af 8000 	nop.w
 8000202:	bd08      	pop	{r3, pc}
 8000204:	00000000 	.word	0x00000000
 8000208:	200000c4 	.word	0x200000c4
 800020c:	08004a8c 	.word	0x08004a8c

08000210 <strcmp>:
 8000210:	f810 2b01 	ldrb.w	r2, [r0], #1
 8000214:	f811 3b01 	ldrb.w	r3, [r1], #1
 8000218:	2a01      	cmp	r2, #1
 800021a:	bf28      	it	cs
 800021c:	429a      	cmpcs	r2, r3
 800021e:	d0f7      	beq.n	8000210 <strcmp>
 8000220:	1ad0      	subs	r0, r2, r3
 8000222:	4770      	bx	lr
	...

08000230 <memchr>:
 8000230:	f001 01ff 	and.w	r1, r1, #255	; 0xff
 8000234:	2a10      	cmp	r2, #16
 8000236:	db2b      	blt.n	8000290 <memchr+0x60>
 8000238:	f010 0f07 	tst.w	r0, #7
 800023c:	d008      	beq.n	8000250 <memchr+0x20>
 800023e:	f810 3b01 	ldrb.w	r3, [r0], #1
 8000242:	3a01      	subs	r2, #1
 8000244:	428b      	cmp	r3, r1
 8000246:	d02d      	beq.n	80002a4 <memchr+0x74>
 8000248:	f010 0f07 	tst.w	r0, #7
 800024c:	b342      	cbz	r2, 80002a0 <memchr+0x70>
 800024e:	d1f6      	bne.n	800023e <memchr+0xe>
 8000250:	b4f0      	push	{r4, r5, r6, r7}
 8000252:	ea41 2101 	orr.w	r1, r1, r1, lsl #8
 8000256:	ea41 4101 	orr.w	r1, r1, r1, lsl #16
 800025a:	f022 0407 	bic.w	r4, r2, #7
 800025e:	f07f 0700 	mvns.w	r7, #0
 8000262:	2300      	movs	r3, #0
 8000264:	e8f0 5602 	ldrd	r5, r6, [r0], #8
 8000268:	3c08      	subs	r4, #8
 800026a:	ea85 0501 	eor.w	r5, r5, r1
 800026e:	ea86 0601 	eor.w	r6, r6, r1
 8000272:	fa85 f547 	uadd8	r5, r5, r7
 8000276:	faa3 f587 	sel	r5, r3, r7
 800027a:	fa86 f647 	uadd8	r6, r6, r7
 800027e:	faa5 f687 	sel	r6, r5, r7
 8000282:	b98e      	cbnz	r6, 80002a8 <memchr+0x78>
 8000284:	d1ee      	bne.n	8000264 <memchr+0x34>
 8000286:	bcf0      	pop	{r4, r5, r6, r7}
 8000288:	f001 01ff 	and.w	r1, r1, #255	; 0xff
 800028c:	f002 0207 	and.w	r2, r2, #7
 8000290:	b132      	cbz	r2, 80002a0 <memchr+0x70>
 8000292:	f810 3b01 	ldrb.w	r3, [r0], #1
 8000296:	3a01      	subs	r2, #1
 8000298:	ea83 0301 	eor.w	r3, r3, r1
 800029c:	b113      	cbz	r3, 80002a4 <memchr+0x74>
 800029e:	d1f8      	bne.n	8000292 <memchr+0x62>
 80002a0:	2000      	movs	r0, #0
 80002a2:	4770      	bx	lr
 80002a4:	3801      	subs	r0, #1
 80002a6:	4770      	bx	lr
 80002a8:	2d00      	cmp	r5, #0
 80002aa:	bf06      	itte	eq
 80002ac:	4635      	moveq	r5, r6
 80002ae:	3803      	subeq	r0, #3
 80002b0:	3807      	subne	r0, #7
 80002b2:	f015 0f01 	tst.w	r5, #1
 80002b6:	d107      	bne.n	80002c8 <memchr+0x98>
 80002b8:	3001      	adds	r0, #1
 80002ba:	f415 7f80 	tst.w	r5, #256	; 0x100
 80002be:	bf02      	ittt	eq
 80002c0:	3001      	addeq	r0, #1
 80002c2:	f415 3fc0 	tsteq.w	r5, #98304	; 0x18000
 80002c6:	3001      	addeq	r0, #1
 80002c8:	bcf0      	pop	{r4, r5, r6, r7}
 80002ca:	3801      	subs	r0, #1
 80002cc:	4770      	bx	lr
 80002ce:	bf00      	nop

080002d0 <__aeabi_drsub>:
 80002d0:	f081 4100 	eor.w	r1, r1, #2147483648	; 0x80000000
 80002d4:	e002      	b.n	80002dc <__adddf3>
 80002d6:	bf00      	nop

080002d8 <__aeabi_dsub>:
 80002d8:	f083 4300 	eor.w	r3, r3, #2147483648	; 0x80000000

080002dc <__adddf3>:
 80002dc:	b530      	push	{r4, r5, lr}
 80002de:	ea4f 0441 	mov.w	r4, r1, lsl #1
 80002e2:	ea4f 0543 	mov.w	r5, r3, lsl #1
 80002e6:	ea94 0f05 	teq	r4, r5
 80002ea:	bf08      	it	eq
 80002ec:	ea90 0f02 	teqeq	r0, r2
 80002f0:	bf1f      	itttt	ne
 80002f2:	ea54 0c00 	orrsne.w	ip, r4, r0
 80002f6:	ea55 0c02 	orrsne.w	ip, r5, r2
 80002fa:	ea7f 5c64 	mvnsne.w	ip, r4, asr #21
 80002fe:	ea7f 5c65 	mvnsne.w	ip, r5, asr #21
 8000302:	f000 80e2 	beq.w	80004ca <__adddf3+0x1ee>
 8000306:	ea4f 5454 	mov.w	r4, r4, lsr #21
 800030a:	ebd4 5555 	rsbs	r5, r4, r5, lsr #21
 800030e:	bfb8      	it	lt
 8000310:	426d      	neglt	r5, r5
 8000312:	dd0c      	ble.n	800032e <__adddf3+0x52>
 8000314:	442c      	add	r4, r5
 8000316:	ea80 0202 	eor.w	r2, r0, r2
 800031a:	ea81 0303 	eor.w	r3, r1, r3
 800031e:	ea82 0000 	eor.w	r0, r2, r0
 8000322:	ea83 0101 	eor.w	r1, r3, r1
 8000326:	ea80 0202 	eor.w	r2, r0, r2
 800032a:	ea81 0303 	eor.w	r3, r1, r3
 800032e:	2d36      	cmp	r5, #54	; 0x36
 8000330:	bf88      	it	hi
 8000332:	bd30      	pophi	{r4, r5, pc}
 8000334:	f011 4f00 	tst.w	r1, #2147483648	; 0x80000000
 8000338:	ea4f 3101 	mov.w	r1, r1, lsl #12
 800033c:	f44f 1c80 	mov.w	ip, #1048576	; 0x100000
 8000340:	ea4c 3111 	orr.w	r1, ip, r1, lsr #12
 8000344:	d002      	beq.n	800034c <__adddf3+0x70>
 8000346:	4240      	negs	r0, r0
 8000348:	eb61 0141 	sbc.w	r1, r1, r1, lsl #1
 800034c:	f013 4f00 	tst.w	r3, #2147483648	; 0x80000000
 8000350:	ea4f 3303 	mov.w	r3, r3, lsl #12
 8000354:	ea4c 3313 	orr.w	r3, ip, r3, lsr #12
 8000358:	d002      	beq.n	8000360 <__adddf3+0x84>
 800035a:	4252      	negs	r2, r2
 800035c:	eb63 0343 	sbc.w	r3, r3, r3, lsl #1
 8000360:	ea94 0f05 	teq	r4, r5
 8000364:	f000 80a7 	beq.w	80004b6 <__adddf3+0x1da>
 8000368:	f1a4 0401 	sub.w	r4, r4, #1
 800036c:	f1d5 0e20 	rsbs	lr, r5, #32
 8000370:	db0d      	blt.n	800038e <__adddf3+0xb2>
 8000372:	fa02 fc0e 	lsl.w	ip, r2, lr
 8000376:	fa22 f205 	lsr.w	r2, r2, r5
 800037a:	1880      	adds	r0, r0, r2
 800037c:	f141 0100 	adc.w	r1, r1, #0
 8000380:	fa03 f20e 	lsl.w	r2, r3, lr
 8000384:	1880      	adds	r0, r0, r2
 8000386:	fa43 f305 	asr.w	r3, r3, r5
 800038a:	4159      	adcs	r1, r3
 800038c:	e00e      	b.n	80003ac <__adddf3+0xd0>
 800038e:	f1a5 0520 	sub.w	r5, r5, #32
 8000392:	f10e 0e20 	add.w	lr, lr, #32
 8000396:	2a01      	cmp	r2, #1
 8000398:	fa03 fc0e 	lsl.w	ip, r3, lr
 800039c:	bf28      	it	cs
 800039e:	f04c 0c02 	orrcs.w	ip, ip, #2
 80003a2:	fa43 f305 	asr.w	r3, r3, r5
 80003a6:	18c0      	adds	r0, r0, r3
 80003a8:	eb51 71e3 	adcs.w	r1, r1, r3, asr #31
 80003ac:	f001 4500 	and.w	r5, r1, #2147483648	; 0x80000000
 80003b0:	d507      	bpl.n	80003c2 <__adddf3+0xe6>
 80003b2:	f04f 0e00 	mov.w	lr, #0
 80003b6:	f1dc 0c00 	rsbs	ip, ip, #0
 80003ba:	eb7e 0000 	sbcs.w	r0, lr, r0
 80003be:	eb6e 0101 	sbc.w	r1, lr, r1
 80003c2:	f5b1 1f80 	cmp.w	r1, #1048576	; 0x100000
 80003c6:	d31b      	bcc.n	8000400 <__adddf3+0x124>
 80003c8:	f5b1 1f00 	cmp.w	r1, #2097152	; 0x200000
 80003cc:	d30c      	bcc.n	80003e8 <__adddf3+0x10c>
 80003ce:	0849      	lsrs	r1, r1, #1
 80003d0:	ea5f 0030 	movs.w	r0, r0, rrx
 80003d4:	ea4f 0c3c 	mov.w	ip, ip, rrx
 80003d8:	f104 0401 	add.w	r4, r4, #1
 80003dc:	ea4f 5244 	mov.w	r2, r4, lsl #21
 80003e0:	f512 0f80 	cmn.w	r2, #4194304	; 0x400000
 80003e4:	f080 809a 	bcs.w	800051c <__adddf3+0x240>
 80003e8:	f1bc 4f00 	cmp.w	ip, #2147483648	; 0x80000000
 80003ec:	bf08      	it	eq
 80003ee:	ea5f 0c50 	movseq.w	ip, r0, lsr #1
 80003f2:	f150 0000 	adcs.w	r0, r0, #0
 80003f6:	eb41 5104 	adc.w	r1, r1, r4, lsl #20
 80003fa:	ea41 0105 	orr.w	r1, r1, r5
 80003fe:	bd30      	pop	{r4, r5, pc}
 8000400:	ea5f 0c4c 	movs.w	ip, ip, lsl #1
 8000404:	4140      	adcs	r0, r0
 8000406:	eb41 0101 	adc.w	r1, r1, r1
 800040a:	3c01      	subs	r4, #1
 800040c:	bf28      	it	cs
 800040e:	f5b1 1f80 	cmpcs.w	r1, #1048576	; 0x100000
 8000412:	d2e9      	bcs.n	80003e8 <__adddf3+0x10c>
 8000414:	f091 0f00 	teq	r1, #0
 8000418:	bf04      	itt	eq
 800041a:	4601      	moveq	r1, r0
 800041c:	2000      	moveq	r0, #0
 800041e:	fab1 f381 	clz	r3, r1
 8000422:	bf08      	it	eq
 8000424:	3320      	addeq	r3, #32
 8000426:	f1a3 030b 	sub.w	r3, r3, #11
 800042a:	f1b3 0220 	subs.w	r2, r3, #32
 800042e:	da0c      	bge.n	800044a <__adddf3+0x16e>
 8000430:	320c      	adds	r2, #12
 8000432:	dd08      	ble.n	8000446 <__adddf3+0x16a>
 8000434:	f102 0c14 	add.w	ip, r2, #20
 8000438:	f1c2 020c 	rsb	r2, r2, #12
 800043c:	fa01 f00c 	lsl.w	r0, r1, ip
 8000440:	fa21 f102 	lsr.w	r1, r1, r2
 8000444:	e00c      	b.n	8000460 <__adddf3+0x184>
 8000446:	f102 0214 	add.w	r2, r2, #20
 800044a:	bfd8      	it	le
 800044c:	f1c2 0c20 	rsble	ip, r2, #32
 8000450:	fa01 f102 	lsl.w	r1, r1, r2
 8000454:	fa20 fc0c 	lsr.w	ip, r0, ip
 8000458:	bfdc      	itt	le
 800045a:	ea41 010c 	orrle.w	r1, r1, ip
 800045e:	4090      	lslle	r0, r2
 8000460:	1ae4      	subs	r4, r4, r3
 8000462:	bfa2      	ittt	ge
 8000464:	eb01 5104 	addge.w	r1, r1, r4, lsl #20
 8000468:	4329      	orrge	r1, r5
 800046a:	bd30      	popge	{r4, r5, pc}
 800046c:	ea6f 0404 	mvn.w	r4, r4
 8000470:	3c1f      	subs	r4, #31
 8000472:	da1c      	bge.n	80004ae <__adddf3+0x1d2>
 8000474:	340c      	adds	r4, #12
 8000476:	dc0e      	bgt.n	8000496 <__adddf3+0x1ba>
 8000478:	f104 0414 	add.w	r4, r4, #20
 800047c:	f1c4 0220 	rsb	r2, r4, #32
 8000480:	fa20 f004 	lsr.w	r0, r0, r4
 8000484:	fa01 f302 	lsl.w	r3, r1, r2
 8000488:	ea40 0003 	orr.w	r0, r0, r3
 800048c:	fa21 f304 	lsr.w	r3, r1, r4
 8000490:	ea45 0103 	orr.w	r1, r5, r3
 8000494:	bd30      	pop	{r4, r5, pc}
 8000496:	f1c4 040c 	rsb	r4, r4, #12
 800049a:	f1c4 0220 	rsb	r2, r4, #32
 800049e:	fa20 f002 	lsr.w	r0, r0, r2
 80004a2:	fa01 f304 	lsl.w	r3, r1, r4
 80004a6:	ea40 0003 	orr.w	r0, r0, r3
 80004aa:	4629      	mov	r1, r5
 80004ac:	bd30      	pop	{r4, r5, pc}
 80004ae:	fa21 f004 	lsr.w	r0, r1, r4
 80004b2:	4629      	mov	r1, r5
 80004b4:	bd30      	pop	{r4, r5, pc}
 80004b6:	f094 0f00 	teq	r4, #0
 80004ba:	f483 1380 	eor.w	r3, r3, #1048576	; 0x100000
 80004be:	bf06      	itte	eq
 80004c0:	f481 1180 	eoreq.w	r1, r1, #1048576	; 0x100000
 80004c4:	3401      	addeq	r4, #1
 80004c6:	3d01      	subne	r5, #1
 80004c8:	e74e      	b.n	8000368 <__adddf3+0x8c>
 80004ca:	ea7f 5c64 	mvns.w	ip, r4, asr #21
 80004ce:	bf18      	it	ne
 80004d0:	ea7f 5c65 	mvnsne.w	ip, r5, asr #21
 80004d4:	d029      	beq.n	800052a <__adddf3+0x24e>
 80004d6:	ea94 0f05 	teq	r4, r5
 80004da:	bf08      	it	eq
 80004dc:	ea90 0f02 	teqeq	r0, r2
 80004e0:	d005      	beq.n	80004ee <__adddf3+0x212>
 80004e2:	ea54 0c00 	orrs.w	ip, r4, r0
 80004e6:	bf04      	itt	eq
 80004e8:	4619      	moveq	r1, r3
 80004ea:	4610      	moveq	r0, r2
 80004ec:	bd30      	pop	{r4, r5, pc}
 80004ee:	ea91 0f03 	teq	r1, r3
 80004f2:	bf1e      	ittt	ne
 80004f4:	2100      	movne	r1, #0
 80004f6:	2000      	movne	r0, #0
 80004f8:	bd30      	popne	{r4, r5, pc}
 80004fa:	ea5f 5c54 	movs.w	ip, r4, lsr #21
 80004fe:	d105      	bne.n	800050c <__adddf3+0x230>
 8000500:	0040      	lsls	r0, r0, #1
 8000502:	4149      	adcs	r1, r1
 8000504:	bf28      	it	cs
 8000506:	f041 4100 	orrcs.w	r1, r1, #2147483648	; 0x80000000
 800050a:	bd30      	pop	{r4, r5, pc}
 800050c:	f514 0480 	adds.w	r4, r4, #4194304	; 0x400000
 8000510:	bf3c      	itt	cc
 8000512:	f501 1180 	addcc.w	r1, r1, #1048576	; 0x100000
 8000516:	bd30      	popcc	{r4, r5, pc}
 8000518:	f001 4500 	and.w	r5, r1, #2147483648	; 0x80000000
 800051c:	f045 41fe 	orr.w	r1, r5, #2130706432	; 0x7f000000
 8000520:	f441 0170 	orr.w	r1, r1, #15728640	; 0xf00000
 8000524:	f04f 0000 	mov.w	r0, #0
 8000528:	bd30      	pop	{r4, r5, pc}
 800052a:	ea7f 5c64 	mvns.w	ip, r4, asr #21
 800052e:	bf1a      	itte	ne
 8000530:	4619      	movne	r1, r3
 8000532:	4610      	movne	r0, r2
 8000534:	ea7f 5c65 	mvnseq.w	ip, r5, asr #21
 8000538:	bf1c      	itt	ne
 800053a:	460b      	movne	r3, r1
 800053c:	4602      	movne	r2, r0
 800053e:	ea50 3401 	orrs.w	r4, r0, r1, lsl #12
 8000542:	bf06      	itte	eq
 8000544:	ea52 3503 	orrseq.w	r5, r2, r3, lsl #12
 8000548:	ea91 0f03 	teqeq	r1, r3
 800054c:	f441 2100 	orrne.w	r1, r1, #524288	; 0x80000
 8000550:	bd30      	pop	{r4, r5, pc}
 8000552:	bf00      	nop

08000554 <__aeabi_ui2d>:
 8000554:	f090 0f00 	teq	r0, #0
 8000558:	bf04      	itt	eq
 800055a:	2100      	moveq	r1, #0
 800055c:	4770      	bxeq	lr
 800055e:	b530      	push	{r4, r5, lr}
 8000560:	f44f 6480 	mov.w	r4, #1024	; 0x400
 8000564:	f104 0432 	add.w	r4, r4, #50	; 0x32
 8000568:	f04f 0500 	mov.w	r5, #0
 800056c:	f04f 0100 	mov.w	r1, #0
 8000570:	e750      	b.n	8000414 <__adddf3+0x138>
 8000572:	bf00      	nop

08000574 <__aeabi_i2d>:
 8000574:	f090 0f00 	teq	r0, #0
 8000578:	bf04      	itt	eq
 800057a:	2100      	moveq	r1, #0
 800057c:	4770      	bxeq	lr
 800057e:	b530      	push	{r4, r5, lr}
 8000580:	f44f 6480 	mov.w	r4, #1024	; 0x400
 8000584:	f104 0432 	add.w	r4, r4, #50	; 0x32
 8000588:	f010 4500 	ands.w	r5, r0, #2147483648	; 0x80000000
 800058c:	bf48      	it	mi
 800058e:	4240      	negmi	r0, r0
 8000590:	f04f 0100 	mov.w	r1, #0
 8000594:	e73e      	b.n	8000414 <__adddf3+0x138>
 8000596:	bf00      	nop

08000598 <__aeabi_f2d>:
 8000598:	0042      	lsls	r2, r0, #1
 800059a:	ea4f 01e2 	mov.w	r1, r2, asr #3
 800059e:	ea4f 0131 	mov.w	r1, r1, rrx
 80005a2:	ea4f 7002 	mov.w	r0, r2, lsl #28
 80005a6:	bf1f      	itttt	ne
 80005a8:	f012 437f 	andsne.w	r3, r2, #4278190080	; 0xff000000
 80005ac:	f093 4f7f 	teqne	r3, #4278190080	; 0xff000000
 80005b0:	f081 5160 	eorne.w	r1, r1, #939524096	; 0x38000000
 80005b4:	4770      	bxne	lr
 80005b6:	f032 427f 	bics.w	r2, r2, #4278190080	; 0xff000000
 80005ba:	bf08      	it	eq
 80005bc:	4770      	bxeq	lr
 80005be:	f093 4f7f 	teq	r3, #4278190080	; 0xff000000
 80005c2:	bf04      	itt	eq
 80005c4:	f441 2100 	orreq.w	r1, r1, #524288	; 0x80000
 80005c8:	4770      	bxeq	lr
 80005ca:	b530      	push	{r4, r5, lr}
 80005cc:	f44f 7460 	mov.w	r4, #896	; 0x380
 80005d0:	f001 4500 	and.w	r5, r1, #2147483648	; 0x80000000
 80005d4:	f021 4100 	bic.w	r1, r1, #2147483648	; 0x80000000
 80005d8:	e71c      	b.n	8000414 <__adddf3+0x138>
 80005da:	bf00      	nop

080005dc <__aeabi_ul2d>:
 80005dc:	ea50 0201 	orrs.w	r2, r0, r1
 80005e0:	bf08      	it	eq
 80005e2:	4770      	bxeq	lr
 80005e4:	b530      	push	{r4, r5, lr}
 80005e6:	f04f 0500 	mov.w	r5, #0
 80005ea:	e00a      	b.n	8000602 <__aeabi_l2d+0x16>

080005ec <__aeabi_l2d>:
 80005ec:	ea50 0201 	orrs.w	r2, r0, r1
 80005f0:	bf08      	it	eq
 80005f2:	4770      	bxeq	lr
 80005f4:	b530      	push	{r4, r5, lr}
 80005f6:	f011 4500 	ands.w	r5, r1, #2147483648	; 0x80000000
 80005fa:	d502      	bpl.n	8000602 <__aeabi_l2d+0x16>
 80005fc:	4240      	negs	r0, r0
 80005fe:	eb61 0141 	sbc.w	r1, r1, r1, lsl #1
 8000602:	f44f 6480 	mov.w	r4, #1024	; 0x400
 8000606:	f104 0432 	add.w	r4, r4, #50	; 0x32
 800060a:	ea5f 5c91 	movs.w	ip, r1, lsr #22
 800060e:	f43f aed8 	beq.w	80003c2 <__adddf3+0xe6>
 8000612:	f04f 0203 	mov.w	r2, #3
 8000616:	ea5f 0cdc 	movs.w	ip, ip, lsr #3
 800061a:	bf18      	it	ne
 800061c:	3203      	addne	r2, #3
 800061e:	ea5f 0cdc 	movs.w	ip, ip, lsr #3
 8000622:	bf18      	it	ne
 8000624:	3203      	addne	r2, #3
 8000626:	eb02 02dc 	add.w	r2, r2, ip, lsr #3
 800062a:	f1c2 0320 	rsb	r3, r2, #32
 800062e:	fa00 fc03 	lsl.w	ip, r0, r3
 8000632:	fa20 f002 	lsr.w	r0, r0, r2
 8000636:	fa01 fe03 	lsl.w	lr, r1, r3
 800063a:	ea40 000e 	orr.w	r0, r0, lr
 800063e:	fa21 f102 	lsr.w	r1, r1, r2
 8000642:	4414      	add	r4, r2
 8000644:	e6bd      	b.n	80003c2 <__adddf3+0xe6>
 8000646:	bf00      	nop

08000648 <__aeabi_dmul>:
 8000648:	b570      	push	{r4, r5, r6, lr}
 800064a:	f04f 0cff 	mov.w	ip, #255	; 0xff
 800064e:	f44c 6ce0 	orr.w	ip, ip, #1792	; 0x700
 8000652:	ea1c 5411 	ands.w	r4, ip, r1, lsr #20
 8000656:	bf1d      	ittte	ne
 8000658:	ea1c 5513 	andsne.w	r5, ip, r3, lsr #20
 800065c:	ea94 0f0c 	teqne	r4, ip
 8000660:	ea95 0f0c 	teqne	r5, ip
 8000664:	f000 f8de 	bleq	8000824 <__aeabi_dmul+0x1dc>
 8000668:	442c      	add	r4, r5
 800066a:	ea81 0603 	eor.w	r6, r1, r3
 800066e:	ea21 514c 	bic.w	r1, r1, ip, lsl #21
 8000672:	ea23 534c 	bic.w	r3, r3, ip, lsl #21
 8000676:	ea50 3501 	orrs.w	r5, r0, r1, lsl #12
 800067a:	bf18      	it	ne
 800067c:	ea52 3503 	orrsne.w	r5, r2, r3, lsl #12
 8000680:	f441 1180 	orr.w	r1, r1, #1048576	; 0x100000
 8000684:	f443 1380 	orr.w	r3, r3, #1048576	; 0x100000
 8000688:	d038      	beq.n	80006fc <__aeabi_dmul+0xb4>
 800068a:	fba0 ce02 	umull	ip, lr, r0, r2
 800068e:	f04f 0500 	mov.w	r5, #0
 8000692:	fbe1 e502 	umlal	lr, r5, r1, r2
 8000696:	f006 4200 	and.w	r2, r6, #2147483648	; 0x80000000
 800069a:	fbe0 e503 	umlal	lr, r5, r0, r3
 800069e:	f04f 0600 	mov.w	r6, #0
 80006a2:	fbe1 5603 	umlal	r5, r6, r1, r3
 80006a6:	f09c 0f00 	teq	ip, #0
 80006aa:	bf18      	it	ne
 80006ac:	f04e 0e01 	orrne.w	lr, lr, #1
 80006b0:	f1a4 04ff 	sub.w	r4, r4, #255	; 0xff
 80006b4:	f5b6 7f00 	cmp.w	r6, #512	; 0x200
 80006b8:	f564 7440 	sbc.w	r4, r4, #768	; 0x300
 80006bc:	d204      	bcs.n	80006c8 <__aeabi_dmul+0x80>
 80006be:	ea5f 0e4e 	movs.w	lr, lr, lsl #1
 80006c2:	416d      	adcs	r5, r5
 80006c4:	eb46 0606 	adc.w	r6, r6, r6
 80006c8:	ea42 21c6 	orr.w	r1, r2, r6, lsl #11
 80006cc:	ea41 5155 	orr.w	r1, r1, r5, lsr #21
 80006d0:	ea4f 20c5 	mov.w	r0, r5, lsl #11
 80006d4:	ea40 505e 	orr.w	r0, r0, lr, lsr #21
 80006d8:	ea4f 2ece 	mov.w	lr, lr, lsl #11
 80006dc:	f1b4 0cfd 	subs.w	ip, r4, #253	; 0xfd
 80006e0:	bf88      	it	hi
 80006e2:	f5bc 6fe0 	cmphi.w	ip, #1792	; 0x700
 80006e6:	d81e      	bhi.n	8000726 <__aeabi_dmul+0xde>
 80006e8:	f1be 4f00 	cmp.w	lr, #2147483648	; 0x80000000
 80006ec:	bf08      	it	eq
 80006ee:	ea5f 0e50 	movseq.w	lr, r0, lsr #1
 80006f2:	f150 0000 	adcs.w	r0, r0, #0
 80006f6:	eb41 5104 	adc.w	r1, r1, r4, lsl #20
 80006fa:	bd70      	pop	{r4, r5, r6, pc}
 80006fc:	f006 4600 	and.w	r6, r6, #2147483648	; 0x80000000
 8000700:	ea46 0101 	orr.w	r1, r6, r1
 8000704:	ea40 0002 	orr.w	r0, r0, r2
 8000708:	ea81 0103 	eor.w	r1, r1, r3
 800070c:	ebb4 045c 	subs.w	r4, r4, ip, lsr #1
 8000710:	bfc2      	ittt	gt
 8000712:	ebd4 050c 	rsbsgt	r5, r4, ip
 8000716:	ea41 5104 	orrgt.w	r1, r1, r4, lsl #20
 800071a:	bd70      	popgt	{r4, r5, r6, pc}
 800071c:	f441 1180 	orr.w	r1, r1, #1048576	; 0x100000
 8000720:	f04f 0e00 	mov.w	lr, #0
 8000724:	3c01      	subs	r4, #1
 8000726:	f300 80ab 	bgt.w	8000880 <__aeabi_dmul+0x238>
 800072a:	f114 0f36 	cmn.w	r4, #54	; 0x36
 800072e:	bfde      	ittt	le
 8000730:	2000      	movle	r0, #0
 8000732:	f001 4100 	andle.w	r1, r1, #2147483648	; 0x80000000
 8000736:	bd70      	pople	{r4, r5, r6, pc}
 8000738:	f1c4 0400 	rsb	r4, r4, #0
 800073c:	3c20      	subs	r4, #32
 800073e:	da35      	bge.n	80007ac <__aeabi_dmul+0x164>
 8000740:	340c      	adds	r4, #12
 8000742:	dc1b      	bgt.n	800077c <__aeabi_dmul+0x134>
 8000744:	f104 0414 	add.w	r4, r4, #20
 8000748:	f1c4 0520 	rsb	r5, r4, #32
 800074c:	fa00 f305 	lsl.w	r3, r0, r5
 8000750:	fa20 f004 	lsr.w	r0, r0, r4
 8000754:	fa01 f205 	lsl.w	r2, r1, r5
 8000758:	ea40 0002 	orr.w	r0, r0, r2
 800075c:	f001 4200 	and.w	r2, r1, #2147483648	; 0x80000000
 8000760:	f021 4100 	bic.w	r1, r1, #2147483648	; 0x80000000
 8000764:	eb10 70d3 	adds.w	r0, r0, r3, lsr #31
 8000768:	fa21 f604 	lsr.w	r6, r1, r4
 800076c:	eb42 0106 	adc.w	r1, r2, r6
 8000770:	ea5e 0e43 	orrs.w	lr, lr, r3, lsl #1
 8000774:	bf08      	it	eq
 8000776:	ea20 70d3 	biceq.w	r0, r0, r3, lsr #31
 800077a:	bd70      	pop	{r4, r5, r6, pc}
 800077c:	f1c4 040c 	rsb	r4, r4, #12
 8000780:	f1c4 0520 	rsb	r5, r4, #32
 8000784:	fa00 f304 	lsl.w	r3, r0, r4
 8000788:	fa20 f005 	lsr.w	r0, r0, r5
 800078c:	fa01 f204 	lsl.w	r2, r1, r4
 8000790:	ea40 0002 	orr.w	r0, r0, r2
 8000794:	f001 4100 	and.w	r1, r1, #2147483648	; 0x80000000
 8000798:	eb10 70d3 	adds.w	r0, r0, r3, lsr #31
 800079c:	f141 0100 	adc.w	r1, r1, #0
 80007a0:	ea5e 0e43 	orrs.w	lr, lr, r3, lsl #1
 80007a4:	bf08      	it	eq
 80007a6:	ea20 70d3 	biceq.w	r0, r0, r3, lsr #31
 80007aa:	bd70      	pop	{r4, r5, r6, pc}
 80007ac:	f1c4 0520 	rsb	r5, r4, #32
 80007b0:	fa00 f205 	lsl.w	r2, r0, r5
 80007b4:	ea4e 0e02 	orr.w	lr, lr, r2
 80007b8:	fa20 f304 	lsr.w	r3, r0, r4
 80007bc:	fa01 f205 	lsl.w	r2, r1, r5
 80007c0:	ea43 0302 	orr.w	r3, r3, r2
 80007c4:	fa21 f004 	lsr.w	r0, r1, r4
 80007c8:	f001 4100 	and.w	r1, r1, #2147483648	; 0x80000000
 80007cc:	fa21 f204 	lsr.w	r2, r1, r4
 80007d0:	ea20 0002 	bic.w	r0, r0, r2
 80007d4:	eb00 70d3 	add.w	r0, r0, r3, lsr #31
 80007d8:	ea5e 0e43 	orrs.w	lr, lr, r3, lsl #1
 80007dc:	bf08      	it	eq
 80007de:	ea20 70d3 	biceq.w	r0, r0, r3, lsr #31
 80007e2:	bd70      	pop	{r4, r5, r6, pc}
 80007e4:	f094 0f00 	teq	r4, #0
 80007e8:	d10f      	bne.n	800080a <__aeabi_dmul+0x1c2>
 80007ea:	f001 4600 	and.w	r6, r1, #2147483648	; 0x80000000
 80007ee:	0040      	lsls	r0, r0, #1
 80007f0:	eb41 0101 	adc.w	r1, r1, r1
 80007f4:	f411 1f80 	tst.w	r1, #1048576	; 0x100000
 80007f8:	bf08      	it	eq
 80007fa:	3c01      	subeq	r4, #1
 80007fc:	d0f7      	beq.n	80007ee <__aeabi_dmul+0x1a6>
 80007fe:	ea41 0106 	orr.w	r1, r1, r6
 8000802:	f095 0f00 	teq	r5, #0
 8000806:	bf18      	it	ne
 8000808:	4770      	bxne	lr
 800080a:	f003 4600 	and.w	r6, r3, #2147483648	; 0x80000000
 800080e:	0052      	lsls	r2, r2, #1
 8000810:	eb43 0303 	adc.w	r3, r3, r3
 8000814:	f413 1f80 	tst.w	r3, #1048576	; 0x100000
 8000818:	bf08      	it	eq
 800081a:	3d01      	subeq	r5, #1
 800081c:	d0f7      	beq.n	800080e <__aeabi_dmul+0x1c6>
 800081e:	ea43 0306 	orr.w	r3, r3, r6
 8000822:	4770      	bx	lr
 8000824:	ea94 0f0c 	teq	r4, ip
 8000828:	ea0c 5513 	and.w	r5, ip, r3, lsr #20
 800082c:	bf18      	it	ne
 800082e:	ea95 0f0c 	teqne	r5, ip
 8000832:	d00c      	beq.n	800084e <__aeabi_dmul+0x206>
 8000834:	ea50 0641 	orrs.w	r6, r0, r1, lsl #1
 8000838:	bf18      	it	ne
 800083a:	ea52 0643 	orrsne.w	r6, r2, r3, lsl #1
 800083e:	d1d1      	bne.n	80007e4 <__aeabi_dmul+0x19c>
 8000840:	ea81 0103 	eor.w	r1, r1, r3
 8000844:	f001 4100 	and.w	r1, r1, #2147483648	; 0x80000000
 8000848:	f04f 0000 	mov.w	r0, #0
 800084c:	bd70      	pop	{r4, r5, r6, pc}
 800084e:	ea50 0641 	orrs.w	r6, r0, r1, lsl #1
 8000852:	bf06      	itte	eq
 8000854:	4610      	moveq	r0, r2
 8000856:	4619      	moveq	r1, r3
 8000858:	ea52 0643 	orrsne.w	r6, r2, r3, lsl #1
 800085c:	d019      	beq.n	8000892 <__aeabi_dmul+0x24a>
 800085e:	ea94 0f0c 	teq	r4, ip
 8000862:	d102      	bne.n	800086a <__aeabi_dmul+0x222>
 8000864:	ea50 3601 	orrs.w	r6, r0, r1, lsl #12
 8000868:	d113      	bne.n	8000892 <__aeabi_dmul+0x24a>
 800086a:	ea95 0f0c 	teq	r5, ip
 800086e:	d105      	bne.n	800087c <__aeabi_dmul+0x234>
 8000870:	ea52 3603 	orrs.w	r6, r2, r3, lsl #12
 8000874:	bf1c      	itt	ne
 8000876:	4610      	movne	r0, r2
 8000878:	4619      	movne	r1, r3
 800087a:	d10a      	bne.n	8000892 <__aeabi_dmul+0x24a>
 800087c:	ea81 0103 	eor.w	r1, r1, r3
 8000880:	f001 4100 	and.w	r1, r1, #2147483648	; 0x80000000
 8000884:	f041 41fe 	orr.w	r1, r1, #2130706432	; 0x7f000000
 8000888:	f441 0170 	orr.w	r1, r1, #15728640	; 0xf00000
 800088c:	f04f 0000 	mov.w	r0, #0
 8000890:	bd70      	pop	{r4, r5, r6, pc}
 8000892:	f041 41fe 	orr.w	r1, r1, #2130706432	; 0x7f000000
 8000896:	f441 0178 	orr.w	r1, r1, #16252928	; 0xf80000
 800089a:	bd70      	pop	{r4, r5, r6, pc}

0800089c <__aeabi_ddiv>:
 800089c:	b570      	push	{r4, r5, r6, lr}
 800089e:	f04f 0cff 	mov.w	ip, #255	; 0xff
 80008a2:	f44c 6ce0 	orr.w	ip, ip, #1792	; 0x700
 80008a6:	ea1c 5411 	ands.w	r4, ip, r1, lsr #20
 80008aa:	bf1d      	ittte	ne
 80008ac:	ea1c 5513 	andsne.w	r5, ip, r3, lsr #20
 80008b0:	ea94 0f0c 	teqne	r4, ip
 80008b4:	ea95 0f0c 	teqne	r5, ip
 80008b8:	f000 f8a7 	bleq	8000a0a <__aeabi_ddiv+0x16e>
 80008bc:	eba4 0405 	sub.w	r4, r4, r5
 80008c0:	ea81 0e03 	eor.w	lr, r1, r3
 80008c4:	ea52 3503 	orrs.w	r5, r2, r3, lsl #12
 80008c8:	ea4f 3101 	mov.w	r1, r1, lsl #12
 80008cc:	f000 8088 	beq.w	80009e0 <__aeabi_ddiv+0x144>
 80008d0:	ea4f 3303 	mov.w	r3, r3, lsl #12
 80008d4:	f04f 5580 	mov.w	r5, #268435456	; 0x10000000
 80008d8:	ea45 1313 	orr.w	r3, r5, r3, lsr #4
 80008dc:	ea43 6312 	orr.w	r3, r3, r2, lsr #24
 80008e0:	ea4f 2202 	mov.w	r2, r2, lsl #8
 80008e4:	ea45 1511 	orr.w	r5, r5, r1, lsr #4
 80008e8:	ea45 6510 	orr.w	r5, r5, r0, lsr #24
 80008ec:	ea4f 2600 	mov.w	r6, r0, lsl #8
 80008f0:	f00e 4100 	and.w	r1, lr, #2147483648	; 0x80000000
 80008f4:	429d      	cmp	r5, r3
 80008f6:	bf08      	it	eq
 80008f8:	4296      	cmpeq	r6, r2
 80008fa:	f144 04fd 	adc.w	r4, r4, #253	; 0xfd
 80008fe:	f504 7440 	add.w	r4, r4, #768	; 0x300
 8000902:	d202      	bcs.n	800090a <__aeabi_ddiv+0x6e>
 8000904:	085b      	lsrs	r3, r3, #1
 8000906:	ea4f 0232 	mov.w	r2, r2, rrx
 800090a:	1ab6      	subs	r6, r6, r2
 800090c:	eb65 0503 	sbc.w	r5, r5, r3
 8000910:	085b      	lsrs	r3, r3, #1
 8000912:	ea4f 0232 	mov.w	r2, r2, rrx
 8000916:	f44f 1080 	mov.w	r0, #1048576	; 0x100000
 800091a:	f44f 2c00 	mov.w	ip, #524288	; 0x80000
 800091e:	ebb6 0e02 	subs.w	lr, r6, r2
 8000922:	eb75 0e03 	sbcs.w	lr, r5, r3
 8000926:	bf22      	ittt	cs
 8000928:	1ab6      	subcs	r6, r6, r2
 800092a:	4675      	movcs	r5, lr
 800092c:	ea40 000c 	orrcs.w	r0, r0, ip
 8000930:	085b      	lsrs	r3, r3, #1
 8000932:	ea4f 0232 	mov.w	r2, r2, rrx
 8000936:	ebb6 0e02 	subs.w	lr, r6, r2
 800093a:	eb75 0e03 	sbcs.w	lr, r5, r3
 800093e:	bf22      	ittt	cs
 8000940:	1ab6      	subcs	r6, r6, r2
 8000942:	4675      	movcs	r5, lr
 8000944:	ea40 005c 	orrcs.w	r0, r0, ip, lsr #1
 8000948:	085b      	lsrs	r3, r3, #1
 800094a:	ea4f 0232 	mov.w	r2, r2, rrx
 800094e:	ebb6 0e02 	subs.w	lr, r6, r2
 8000952:	eb75 0e03 	sbcs.w	lr, r5, r3
 8000956:	bf22      	ittt	cs
 8000958:	1ab6      	subcs	r6, r6, r2
 800095a:	4675      	movcs	r5, lr
 800095c:	ea40 009c 	orrcs.w	r0, r0, ip, lsr #2
 8000960:	085b      	lsrs	r3, r3, #1
 8000962:	ea4f 0232 	mov.w	r2, r2, rrx
 8000966:	ebb6 0e02 	subs.w	lr, r6, r2
 800096a:	eb75 0e03 	sbcs.w	lr, r5, r3
 800096e:	bf22      	ittt	cs
 8000970:	1ab6      	subcs	r6, r6, r2
 8000972:	4675      	movcs	r5, lr
 8000974:	ea40 00dc 	orrcs.w	r0, r0, ip, lsr #3
 8000978:	ea55 0e06 	orrs.w	lr, r5, r6
 800097c:	d018      	beq.n	80009b0 <__aeabi_ddiv+0x114>
 800097e:	ea4f 1505 	mov.w	r5, r5, lsl #4
 8000982:	ea45 7516 	orr.w	r5, r5, r6, lsr #28
 8000986:	ea4f 1606 	mov.w	r6, r6, lsl #4
 800098a:	ea4f 03c3 	mov.w	r3, r3, lsl #3
 800098e:	ea43 7352 	orr.w	r3, r3, r2, lsr #29
 8000992:	ea4f 02c2 	mov.w	r2, r2, lsl #3
 8000996:	ea5f 1c1c 	movs.w	ip, ip, lsr #4
 800099a:	d1c0      	bne.n	800091e <__aeabi_ddiv+0x82>
 800099c:	f411 1f80 	tst.w	r1, #1048576	; 0x100000
 80009a0:	d10b      	bne.n	80009ba <__aeabi_ddiv+0x11e>
 80009a2:	ea41 0100 	orr.w	r1, r1, r0
 80009a6:	f04f 0000 	mov.w	r0, #0
 80009aa:	f04f 4c00 	mov.w	ip, #2147483648	; 0x80000000
 80009ae:	e7b6      	b.n	800091e <__aeabi_ddiv+0x82>
 80009b0:	f411 1f80 	tst.w	r1, #1048576	; 0x100000
 80009b4:	bf04      	itt	eq
 80009b6:	4301      	orreq	r1, r0
 80009b8:	2000      	moveq	r0, #0
 80009ba:	f1b4 0cfd 	subs.w	ip, r4, #253	; 0xfd
 80009be:	bf88      	it	hi
 80009c0:	f5bc 6fe0 	cmphi.w	ip, #1792	; 0x700
 80009c4:	f63f aeaf 	bhi.w	8000726 <__aeabi_dmul+0xde>
 80009c8:	ebb5 0c03 	subs.w	ip, r5, r3
 80009cc:	bf04      	itt	eq
 80009ce:	ebb6 0c02 	subseq.w	ip, r6, r2
 80009d2:	ea5f 0c50 	movseq.w	ip, r0, lsr #1
 80009d6:	f150 0000 	adcs.w	r0, r0, #0
 80009da:	eb41 5104 	adc.w	r1, r1, r4, lsl #20
 80009de:	bd70      	pop	{r4, r5, r6, pc}
 80009e0:	f00e 4e00 	and.w	lr, lr, #2147483648	; 0x80000000
 80009e4:	ea4e 3111 	orr.w	r1, lr, r1, lsr #12
 80009e8:	eb14 045c 	adds.w	r4, r4, ip, lsr #1
 80009ec:	bfc2      	ittt	gt
 80009ee:	ebd4 050c 	rsbsgt	r5, r4, ip
 80009f2:	ea41 5104 	orrgt.w	r1, r1, r4, lsl #20
 80009f6:	bd70      	popgt	{r4, r5, r6, pc}
 80009f8:	f441 1180 	orr.w	r1, r1, #1048576	; 0x100000
 80009fc:	f04f 0e00 	mov.w	lr, #0
 8000a00:	3c01      	subs	r4, #1
 8000a02:	e690      	b.n	8000726 <__aeabi_dmul+0xde>
 8000a04:	ea45 0e06 	orr.w	lr, r5, r6
 8000a08:	e68d      	b.n	8000726 <__aeabi_dmul+0xde>
 8000a0a:	ea0c 5513 	and.w	r5, ip, r3, lsr #20
 8000a0e:	ea94 0f0c 	teq	r4, ip
 8000a12:	bf08      	it	eq
 8000a14:	ea95 0f0c 	teqeq	r5, ip
 8000a18:	f43f af3b 	beq.w	8000892 <__aeabi_dmul+0x24a>
 8000a1c:	ea94 0f0c 	teq	r4, ip
 8000a20:	d10a      	bne.n	8000a38 <__aeabi_ddiv+0x19c>
 8000a22:	ea50 3401 	orrs.w	r4, r0, r1, lsl #12
 8000a26:	f47f af34 	bne.w	8000892 <__aeabi_dmul+0x24a>
 8000a2a:	ea95 0f0c 	teq	r5, ip
 8000a2e:	f47f af25 	bne.w	800087c <__aeabi_dmul+0x234>
 8000a32:	4610      	mov	r0, r2
 8000a34:	4619      	mov	r1, r3
 8000a36:	e72c      	b.n	8000892 <__aeabi_dmul+0x24a>
 8000a38:	ea95 0f0c 	teq	r5, ip
 8000a3c:	d106      	bne.n	8000a4c <__aeabi_ddiv+0x1b0>
 8000a3e:	ea52 3503 	orrs.w	r5, r2, r3, lsl #12
 8000a42:	f43f aefd 	beq.w	8000840 <__aeabi_dmul+0x1f8>
 8000a46:	4610      	mov	r0, r2
 8000a48:	4619      	mov	r1, r3
 8000a4a:	e722      	b.n	8000892 <__aeabi_dmul+0x24a>
 8000a4c:	ea50 0641 	orrs.w	r6, r0, r1, lsl #1
 8000a50:	bf18      	it	ne
 8000a52:	ea52 0643 	orrsne.w	r6, r2, r3, lsl #1
 8000a56:	f47f aec5 	bne.w	80007e4 <__aeabi_dmul+0x19c>
 8000a5a:	ea50 0441 	orrs.w	r4, r0, r1, lsl #1
 8000a5e:	f47f af0d 	bne.w	800087c <__aeabi_dmul+0x234>
 8000a62:	ea52 0543 	orrs.w	r5, r2, r3, lsl #1
 8000a66:	f47f aeeb 	bne.w	8000840 <__aeabi_dmul+0x1f8>
 8000a6a:	e712      	b.n	8000892 <__aeabi_dmul+0x24a>

08000a6c <__aeabi_d2f>:
 8000a6c:	ea4f 0241 	mov.w	r2, r1, lsl #1
 8000a70:	f1b2 43e0 	subs.w	r3, r2, #1879048192	; 0x70000000
 8000a74:	bf24      	itt	cs
 8000a76:	f5b3 1c00 	subscs.w	ip, r3, #2097152	; 0x200000
 8000a7a:	f1dc 5cfe 	rsbscs	ip, ip, #532676608	; 0x1fc00000
 8000a7e:	d90d      	bls.n	8000a9c <__aeabi_d2f+0x30>
 8000a80:	f001 4c00 	and.w	ip, r1, #2147483648	; 0x80000000
 8000a84:	ea4f 02c0 	mov.w	r2, r0, lsl #3
 8000a88:	ea4c 7050 	orr.w	r0, ip, r0, lsr #29
 8000a8c:	f1b2 4f00 	cmp.w	r2, #2147483648	; 0x80000000
 8000a90:	eb40 0083 	adc.w	r0, r0, r3, lsl #2
 8000a94:	bf08      	it	eq
 8000a96:	f020 0001 	biceq.w	r0, r0, #1
 8000a9a:	4770      	bx	lr
 8000a9c:	f011 4f80 	tst.w	r1, #1073741824	; 0x40000000
 8000aa0:	d121      	bne.n	8000ae6 <__aeabi_d2f+0x7a>
 8000aa2:	f113 7238 	adds.w	r2, r3, #48234496	; 0x2e00000
 8000aa6:	bfbc      	itt	lt
 8000aa8:	f001 4000 	andlt.w	r0, r1, #2147483648	; 0x80000000
 8000aac:	4770      	bxlt	lr
 8000aae:	f441 1180 	orr.w	r1, r1, #1048576	; 0x100000
 8000ab2:	ea4f 5252 	mov.w	r2, r2, lsr #21
 8000ab6:	f1c2 0218 	rsb	r2, r2, #24
 8000aba:	f1c2 0c20 	rsb	ip, r2, #32
 8000abe:	fa10 f30c 	lsls.w	r3, r0, ip
 8000ac2:	fa20 f002 	lsr.w	r0, r0, r2
 8000ac6:	bf18      	it	ne
 8000ac8:	f040 0001 	orrne.w	r0, r0, #1
 8000acc:	ea4f 23c1 	mov.w	r3, r1, lsl #11
 8000ad0:	ea4f 23d3 	mov.w	r3, r3, lsr #11
 8000ad4:	fa03 fc0c 	lsl.w	ip, r3, ip
 8000ad8:	ea40 000c 	orr.w	r0, r0, ip
 8000adc:	fa23 f302 	lsr.w	r3, r3, r2
 8000ae0:	ea4f 0343 	mov.w	r3, r3, lsl #1
 8000ae4:	e7cc      	b.n	8000a80 <__aeabi_d2f+0x14>
 8000ae6:	ea7f 5362 	mvns.w	r3, r2, asr #21
 8000aea:	d107      	bne.n	8000afc <__aeabi_d2f+0x90>
 8000aec:	ea50 3301 	orrs.w	r3, r0, r1, lsl #12
 8000af0:	bf1e      	ittt	ne
 8000af2:	f04f 40fe 	movne.w	r0, #2130706432	; 0x7f000000
 8000af6:	f440 0040 	orrne.w	r0, r0, #12582912	; 0xc00000
 8000afa:	4770      	bxne	lr
 8000afc:	f001 4000 	and.w	r0, r1, #2147483648	; 0x80000000
 8000b00:	f040 40fe 	orr.w	r0, r0, #2130706432	; 0x7f000000
 8000b04:	f440 0000 	orr.w	r0, r0, #8388608	; 0x800000
 8000b08:	4770      	bx	lr
 8000b0a:	bf00      	nop

08000b0c <__aeabi_uldivmod>:
 8000b0c:	b953      	cbnz	r3, 8000b24 <__aeabi_uldivmod+0x18>
 8000b0e:	b94a      	cbnz	r2, 8000b24 <__aeabi_uldivmod+0x18>
 8000b10:	2900      	cmp	r1, #0
 8000b12:	bf08      	it	eq
 8000b14:	2800      	cmpeq	r0, #0
 8000b16:	bf1c      	itt	ne
 8000b18:	f04f 31ff 	movne.w	r1, #4294967295
 8000b1c:	f04f 30ff 	movne.w	r0, #4294967295
 8000b20:	f000 b96e 	b.w	8000e00 <__aeabi_idiv0>
 8000b24:	f1ad 0c08 	sub.w	ip, sp, #8
 8000b28:	e96d ce04 	strd	ip, lr, [sp, #-16]!
 8000b2c:	f000 f806 	bl	8000b3c <__udivmoddi4>
 8000b30:	f8dd e004 	ldr.w	lr, [sp, #4]
 8000b34:	e9dd 2302 	ldrd	r2, r3, [sp, #8]
 8000b38:	b004      	add	sp, #16
 8000b3a:	4770      	bx	lr

08000b3c <__udivmoddi4>:
 8000b3c:	e92d 47f0 	stmdb	sp!, {r4, r5, r6, r7, r8, r9, sl, lr}
 8000b40:	9d08      	ldr	r5, [sp, #32]
 8000b42:	4604      	mov	r4, r0
 8000b44:	468c      	mov	ip, r1
 8000b46:	2b00      	cmp	r3, #0
 8000b48:	f040 8083 	bne.w	8000c52 <__udivmoddi4+0x116>
 8000b4c:	428a      	cmp	r2, r1
 8000b4e:	4617      	mov	r7, r2
 8000b50:	d947      	bls.n	8000be2 <__udivmoddi4+0xa6>
 8000b52:	fab2 f282 	clz	r2, r2
 8000b56:	b142      	cbz	r2, 8000b6a <__udivmoddi4+0x2e>
 8000b58:	f1c2 0020 	rsb	r0, r2, #32
 8000b5c:	fa24 f000 	lsr.w	r0, r4, r0
 8000b60:	4091      	lsls	r1, r2
 8000b62:	4097      	lsls	r7, r2
 8000b64:	ea40 0c01 	orr.w	ip, r0, r1
 8000b68:	4094      	lsls	r4, r2
 8000b6a:	ea4f 4817 	mov.w	r8, r7, lsr #16
 8000b6e:	0c23      	lsrs	r3, r4, #16
 8000b70:	fbbc f6f8 	udiv	r6, ip, r8
 8000b74:	fa1f fe87 	uxth.w	lr, r7
 8000b78:	fb08 c116 	mls	r1, r8, r6, ip
 8000b7c:	ea43 4301 	orr.w	r3, r3, r1, lsl #16
 8000b80:	fb06 f10e 	mul.w	r1, r6, lr
 8000b84:	4299      	cmp	r1, r3
 8000b86:	d909      	bls.n	8000b9c <__udivmoddi4+0x60>
 8000b88:	18fb      	adds	r3, r7, r3
 8000b8a:	f106 30ff 	add.w	r0, r6, #4294967295
 8000b8e:	f080 8119 	bcs.w	8000dc4 <__udivmoddi4+0x288>
 8000b92:	4299      	cmp	r1, r3
 8000b94:	f240 8116 	bls.w	8000dc4 <__udivmoddi4+0x288>
 8000b98:	3e02      	subs	r6, #2
 8000b9a:	443b      	add	r3, r7
 8000b9c:	1a5b      	subs	r3, r3, r1
 8000b9e:	b2a4      	uxth	r4, r4
 8000ba0:	fbb3 f0f8 	udiv	r0, r3, r8
 8000ba4:	fb08 3310 	mls	r3, r8, r0, r3
 8000ba8:	ea44 4403 	orr.w	r4, r4, r3, lsl #16
 8000bac:	fb00 fe0e 	mul.w	lr, r0, lr
 8000bb0:	45a6      	cmp	lr, r4
 8000bb2:	d909      	bls.n	8000bc8 <__udivmoddi4+0x8c>
 8000bb4:	193c      	adds	r4, r7, r4
 8000bb6:	f100 33ff 	add.w	r3, r0, #4294967295
 8000bba:	f080 8105 	bcs.w	8000dc8 <__udivmoddi4+0x28c>
 8000bbe:	45a6      	cmp	lr, r4
 8000bc0:	f240 8102 	bls.w	8000dc8 <__udivmoddi4+0x28c>
 8000bc4:	3802      	subs	r0, #2
 8000bc6:	443c      	add	r4, r7
 8000bc8:	ea40 4006 	orr.w	r0, r0, r6, lsl #16
 8000bcc:	eba4 040e 	sub.w	r4, r4, lr
 8000bd0:	2600      	movs	r6, #0
 8000bd2:	b11d      	cbz	r5, 8000bdc <__udivmoddi4+0xa0>
 8000bd4:	40d4      	lsrs	r4, r2
 8000bd6:	2300      	movs	r3, #0
 8000bd8:	e9c5 4300 	strd	r4, r3, [r5]
 8000bdc:	4631      	mov	r1, r6
 8000bde:	e8bd 87f0 	ldmia.w	sp!, {r4, r5, r6, r7, r8, r9, sl, pc}
 8000be2:	b902      	cbnz	r2, 8000be6 <__udivmoddi4+0xaa>
 8000be4:	deff      	udf	#255	; 0xff
 8000be6:	fab2 f282 	clz	r2, r2
 8000bea:	2a00      	cmp	r2, #0
 8000bec:	d150      	bne.n	8000c90 <__udivmoddi4+0x154>
 8000bee:	1bcb      	subs	r3, r1, r7
 8000bf0:	ea4f 4e17 	mov.w	lr, r7, lsr #16
 8000bf4:	fa1f f887 	uxth.w	r8, r7
 8000bf8:	2601      	movs	r6, #1
 8000bfa:	fbb3 fcfe 	udiv	ip, r3, lr
 8000bfe:	0c21      	lsrs	r1, r4, #16
 8000c00:	fb0e 331c 	mls	r3, lr, ip, r3
 8000c04:	ea41 4103 	orr.w	r1, r1, r3, lsl #16
 8000c08:	fb08 f30c 	mul.w	r3, r8, ip
 8000c0c:	428b      	cmp	r3, r1
 8000c0e:	d907      	bls.n	8000c20 <__udivmoddi4+0xe4>
 8000c10:	1879      	adds	r1, r7, r1
 8000c12:	f10c 30ff 	add.w	r0, ip, #4294967295
 8000c16:	d202      	bcs.n	8000c1e <__udivmoddi4+0xe2>
 8000c18:	428b      	cmp	r3, r1
 8000c1a:	f200 80e9 	bhi.w	8000df0 <__udivmoddi4+0x2b4>
 8000c1e:	4684      	mov	ip, r0
 8000c20:	1ac9      	subs	r1, r1, r3
 8000c22:	b2a3      	uxth	r3, r4
 8000c24:	fbb1 f0fe 	udiv	r0, r1, lr
 8000c28:	fb0e 1110 	mls	r1, lr, r0, r1
 8000c2c:	ea43 4401 	orr.w	r4, r3, r1, lsl #16
 8000c30:	fb08 f800 	mul.w	r8, r8, r0
 8000c34:	45a0      	cmp	r8, r4
 8000c36:	d907      	bls.n	8000c48 <__udivmoddi4+0x10c>
 8000c38:	193c      	adds	r4, r7, r4
 8000c3a:	f100 33ff 	add.w	r3, r0, #4294967295
 8000c3e:	d202      	bcs.n	8000c46 <__udivmoddi4+0x10a>
 8000c40:	45a0      	cmp	r8, r4
 8000c42:	f200 80d9 	bhi.w	8000df8 <__udivmoddi4+0x2bc>
 8000c46:	4618      	mov	r0, r3
 8000c48:	eba4 0408 	sub.w	r4, r4, r8
 8000c4c:	ea40 400c 	orr.w	r0, r0, ip, lsl #16
 8000c50:	e7bf      	b.n	8000bd2 <__udivmoddi4+0x96>
 8000c52:	428b      	cmp	r3, r1
 8000c54:	d909      	bls.n	8000c6a <__udivmoddi4+0x12e>
 8000c56:	2d00      	cmp	r5, #0
 8000c58:	f000 80b1 	beq.w	8000dbe <__udivmoddi4+0x282>
 8000c5c:	2600      	movs	r6, #0
 8000c5e:	e9c5 0100 	strd	r0, r1, [r5]
 8000c62:	4630      	mov	r0, r6
 8000c64:	4631      	mov	r1, r6
 8000c66:	e8bd 87f0 	ldmia.w	sp!, {r4, r5, r6, r7, r8, r9, sl, pc}
 8000c6a:	fab3 f683 	clz	r6, r3
 8000c6e:	2e00      	cmp	r6, #0
 8000c70:	d14a      	bne.n	8000d08 <__udivmoddi4+0x1cc>
 8000c72:	428b      	cmp	r3, r1
 8000c74:	d302      	bcc.n	8000c7c <__udivmoddi4+0x140>
 8000c76:	4282      	cmp	r2, r0
 8000c78:	f200 80b8 	bhi.w	8000dec <__udivmoddi4+0x2b0>
 8000c7c:	1a84      	subs	r4, r0, r2
 8000c7e:	eb61 0103 	sbc.w	r1, r1, r3
 8000c82:	2001      	movs	r0, #1
 8000c84:	468c      	mov	ip, r1
 8000c86:	2d00      	cmp	r5, #0
 8000c88:	d0a8      	beq.n	8000bdc <__udivmoddi4+0xa0>
 8000c8a:	e9c5 4c00 	strd	r4, ip, [r5]
 8000c8e:	e7a5      	b.n	8000bdc <__udivmoddi4+0xa0>
 8000c90:	f1c2 0320 	rsb	r3, r2, #32
 8000c94:	fa20 f603 	lsr.w	r6, r0, r3
 8000c98:	4097      	lsls	r7, r2
 8000c9a:	fa01 f002 	lsl.w	r0, r1, r2
 8000c9e:	ea4f 4e17 	mov.w	lr, r7, lsr #16
 8000ca2:	40d9      	lsrs	r1, r3
 8000ca4:	4330      	orrs	r0, r6
 8000ca6:	0c03      	lsrs	r3, r0, #16
 8000ca8:	fbb1 f6fe 	udiv	r6, r1, lr
 8000cac:	fa1f f887 	uxth.w	r8, r7
 8000cb0:	fb0e 1116 	mls	r1, lr, r6, r1
 8000cb4:	ea43 4301 	orr.w	r3, r3, r1, lsl #16
 8000cb8:	fb06 f108 	mul.w	r1, r6, r8
 8000cbc:	4299      	cmp	r1, r3
 8000cbe:	fa04 f402 	lsl.w	r4, r4, r2
 8000cc2:	d909      	bls.n	8000cd8 <__udivmoddi4+0x19c>
 8000cc4:	18fb      	adds	r3, r7, r3
 8000cc6:	f106 3cff 	add.w	ip, r6, #4294967295
 8000cca:	f080 808d 	bcs.w	8000de8 <__udivmoddi4+0x2ac>
 8000cce:	4299      	cmp	r1, r3
 8000cd0:	f240 808a 	bls.w	8000de8 <__udivmoddi4+0x2ac>
 8000cd4:	3e02      	subs	r6, #2
 8000cd6:	443b      	add	r3, r7
 8000cd8:	1a5b      	subs	r3, r3, r1
 8000cda:	b281      	uxth	r1, r0
 8000cdc:	fbb3 f0fe 	udiv	r0, r3, lr
 8000ce0:	fb0e 3310 	mls	r3, lr, r0, r3
 8000ce4:	ea41 4103 	orr.w	r1, r1, r3, lsl #16
 8000ce8:	fb00 f308 	mul.w	r3, r0, r8
 8000cec:	428b      	cmp	r3, r1
 8000cee:	d907      	bls.n	8000d00 <__udivmoddi4+0x1c4>
 8000cf0:	1879      	adds	r1, r7, r1
 8000cf2:	f100 3cff 	add.w	ip, r0, #4294967295
 8000cf6:	d273      	bcs.n	8000de0 <__udivmoddi4+0x2a4>
 8000cf8:	428b      	cmp	r3, r1
 8000cfa:	d971      	bls.n	8000de0 <__udivmoddi4+0x2a4>
 8000cfc:	3802      	subs	r0, #2
 8000cfe:	4439      	add	r1, r7
 8000d00:	1acb      	subs	r3, r1, r3
 8000d02:	ea40 4606 	orr.w	r6, r0, r6, lsl #16
 8000d06:	e778      	b.n	8000bfa <__udivmoddi4+0xbe>
 8000d08:	f1c6 0c20 	rsb	ip, r6, #32
 8000d0c:	fa03 f406 	lsl.w	r4, r3, r6
 8000d10:	fa22 f30c 	lsr.w	r3, r2, ip
 8000d14:	431c      	orrs	r4, r3
 8000d16:	fa20 f70c 	lsr.w	r7, r0, ip
 8000d1a:	fa01 f306 	lsl.w	r3, r1, r6
 8000d1e:	ea4f 4e14 	mov.w	lr, r4, lsr #16
 8000d22:	fa21 f10c 	lsr.w	r1, r1, ip
 8000d26:	431f      	orrs	r7, r3
 8000d28:	0c3b      	lsrs	r3, r7, #16
 8000d2a:	fbb1 f9fe 	udiv	r9, r1, lr
 8000d2e:	fa1f f884 	uxth.w	r8, r4
 8000d32:	fb0e 1119 	mls	r1, lr, r9, r1
 8000d36:	ea43 4101 	orr.w	r1, r3, r1, lsl #16
 8000d3a:	fb09 fa08 	mul.w	sl, r9, r8
 8000d3e:	458a      	cmp	sl, r1
 8000d40:	fa02 f206 	lsl.w	r2, r2, r6
 8000d44:	fa00 f306 	lsl.w	r3, r0, r6
 8000d48:	d908      	bls.n	8000d5c <__udivmoddi4+0x220>
 8000d4a:	1861      	adds	r1, r4, r1
 8000d4c:	f109 30ff 	add.w	r0, r9, #4294967295
 8000d50:	d248      	bcs.n	8000de4 <__udivmoddi4+0x2a8>
 8000d52:	458a      	cmp	sl, r1
 8000d54:	d946      	bls.n	8000de4 <__udivmoddi4+0x2a8>
 8000d56:	f1a9 0902 	sub.w	r9, r9, #2
 8000d5a:	4421      	add	r1, r4
 8000d5c:	eba1 010a 	sub.w	r1, r1, sl
 8000d60:	b2bf      	uxth	r7, r7
 8000d62:	fbb1 f0fe 	udiv	r0, r1, lr
 8000d66:	fb0e 1110 	mls	r1, lr, r0, r1
 8000d6a:	ea47 4701 	orr.w	r7, r7, r1, lsl #16
 8000d6e:	fb00 f808 	mul.w	r8, r0, r8
 8000d72:	45b8      	cmp	r8, r7
 8000d74:	d907      	bls.n	8000d86 <__udivmoddi4+0x24a>
 8000d76:	19e7      	adds	r7, r4, r7
 8000d78:	f100 31ff 	add.w	r1, r0, #4294967295
 8000d7c:	d22e      	bcs.n	8000ddc <__udivmoddi4+0x2a0>
 8000d7e:	45b8      	cmp	r8, r7
 8000d80:	d92c      	bls.n	8000ddc <__udivmoddi4+0x2a0>
 8000d82:	3802      	subs	r0, #2
 8000d84:	4427      	add	r7, r4
 8000d86:	ea40 4009 	orr.w	r0, r0, r9, lsl #16
 8000d8a:	eba7 0708 	sub.w	r7, r7, r8
 8000d8e:	fba0 8902 	umull	r8, r9, r0, r2
 8000d92:	454f      	cmp	r7, r9
 8000d94:	46c6      	mov	lr, r8
 8000d96:	4649      	mov	r1, r9
 8000d98:	d31a      	bcc.n	8000dd0 <__udivmoddi4+0x294>
 8000d9a:	d017      	beq.n	8000dcc <__udivmoddi4+0x290>
 8000d9c:	b15d      	cbz	r5, 8000db6 <__udivmoddi4+0x27a>
 8000d9e:	ebb3 020e 	subs.w	r2, r3, lr
 8000da2:	eb67 0701 	sbc.w	r7, r7, r1
 8000da6:	fa07 fc0c 	lsl.w	ip, r7, ip
 8000daa:	40f2      	lsrs	r2, r6
 8000dac:	ea4c 0202 	orr.w	r2, ip, r2
 8000db0:	40f7      	lsrs	r7, r6
 8000db2:	e9c5 2700 	strd	r2, r7, [r5]
 8000db6:	2600      	movs	r6, #0
 8000db8:	4631      	mov	r1, r6
 8000dba:	e8bd 87f0 	ldmia.w	sp!, {r4, r5, r6, r7, r8, r9, sl, pc}
 8000dbe:	462e      	mov	r6, r5
 8000dc0:	4628      	mov	r0, r5
 8000dc2:	e70b      	b.n	8000bdc <__udivmoddi4+0xa0>
 8000dc4:	4606      	mov	r6, r0
 8000dc6:	e6e9      	b.n	8000b9c <__udivmoddi4+0x60>
 8000dc8:	4618      	mov	r0, r3
 8000dca:	e6fd      	b.n	8000bc8 <__udivmoddi4+0x8c>
 8000dcc:	4543      	cmp	r3, r8
 8000dce:	d2e5      	bcs.n	8000d9c <__udivmoddi4+0x260>
 8000dd0:	ebb8 0e02 	subs.w	lr, r8, r2
 8000dd4:	eb69 0104 	sbc.w	r1, r9, r4
 8000dd8:	3801      	subs	r0, #1
 8000dda:	e7df      	b.n	8000d9c <__udivmoddi4+0x260>
 8000ddc:	4608      	mov	r0, r1
 8000dde:	e7d2      	b.n	8000d86 <__udivmoddi4+0x24a>
 8000de0:	4660      	mov	r0, ip
 8000de2:	e78d      	b.n	8000d00 <__udivmoddi4+0x1c4>
 8000de4:	4681      	mov	r9, r0
 8000de6:	e7b9      	b.n	8000d5c <__udivmoddi4+0x220>
 8000de8:	4666      	mov	r6, ip
 8000dea:	e775      	b.n	8000cd8 <__udivmoddi4+0x19c>
 8000dec:	4630      	mov	r0, r6
 8000dee:	e74a      	b.n	8000c86 <__udivmoddi4+0x14a>
 8000df0:	f1ac 0c02 	sub.w	ip, ip, #2
 8000df4:	4439      	add	r1, r7
 8000df6:	e713      	b.n	8000c20 <__udivmoddi4+0xe4>
 8000df8:	3802      	subs	r0, #2
 8000dfa:	443c      	add	r4, r7
 8000dfc:	e724      	b.n	8000c48 <__udivmoddi4+0x10c>
 8000dfe:	bf00      	nop

08000e00 <__aeabi_idiv0>:
 8000e00:	4770      	bx	lr
 8000e02:	bf00      	nop

08000e04 <MX_ADC1_Init>:
 8000e04:	b51f      	push	{r0, r1, r2, r3, r4, lr}
 8000e06:	2210      	movs	r2, #16
 8000e08:	2100      	movs	r1, #0
 8000e0a:	4668      	mov	r0, sp
 8000e0c:	f003 fa08 	bl	8004220 <memset>
 8000e10:	4815      	ldr	r0, [pc, #84]	; (8000e68 <MX_ADC1_Init+0x64>)
 8000e12:	4a16      	ldr	r2, [pc, #88]	; (8000e6c <MX_ADC1_Init+0x68>)
 8000e14:	f44f 3380 	mov.w	r3, #65536	; 0x10000
 8000e18:	e9c0 2300 	strd	r2, r3, [r0]
 8000e1c:	2401      	movs	r4, #1
 8000e1e:	2300      	movs	r3, #0
 8000e20:	f04f 6200 	mov.w	r2, #134217728	; 0x8000000
 8000e24:	f04f 5180 	mov.w	r1, #268435456	; 0x10000000
 8000e28:	e9c0 210a 	strd	r2, r1, [r0, #40]	; 0x28
 8000e2c:	6083      	str	r3, [r0, #8]
 8000e2e:	6103      	str	r3, [r0, #16]
 8000e30:	7603      	strb	r3, [r0, #24]
 8000e32:	f880 3020 	strb.w	r3, [r0, #32]
 8000e36:	60c3      	str	r3, [r0, #12]
 8000e38:	61c4      	str	r4, [r0, #28]
 8000e3a:	f880 3030 	strb.w	r3, [r0, #48]	; 0x30
 8000e3e:	6144      	str	r4, [r0, #20]
 8000e40:	f001 f890 	bl	8001f64 <HAL_ADC_Init>
 8000e44:	b108      	cbz	r0, 8000e4a <MX_ADC1_Init+0x46>
 8000e46:	f000 fb6d 	bl	8001524 <Error_Handler>
 8000e4a:	2308      	movs	r3, #8
 8000e4c:	e9cd 3400 	strd	r3, r4, [sp]
 8000e50:	4805      	ldr	r0, [pc, #20]	; (8000e68 <MX_ADC1_Init+0x64>)
 8000e52:	2300      	movs	r3, #0
 8000e54:	4669      	mov	r1, sp
 8000e56:	9302      	str	r3, [sp, #8]
 8000e58:	f001 fab2 	bl	80023c0 <HAL_ADC_ConfigChannel>
 8000e5c:	b108      	cbz	r0, 8000e62 <MX_ADC1_Init+0x5e>
 8000e5e:	f000 fb61 	bl	8001524 <Error_Handler>
 8000e62:	b004      	add	sp, #16
 8000e64:	bd10      	pop	{r4, pc}
 8000e66:	bf00      	nop
 8000e68:	2000019c 	.word	0x2000019c
 8000e6c:	40012000 	.word	0x40012000

08000e70 <HAL_ADC_MspInit>:
 8000e70:	b570      	push	{r4, r5, r6, lr}
 8000e72:	4606      	mov	r6, r0
 8000e74:	b088      	sub	sp, #32
 8000e76:	2214      	movs	r2, #20
 8000e78:	2100      	movs	r1, #0
 8000e7a:	a803      	add	r0, sp, #12
 8000e7c:	f003 f9d0 	bl	8004220 <memset>
 8000e80:	6832      	ldr	r2, [r6, #0]
 8000e82:	4b23      	ldr	r3, [pc, #140]	; (8000f10 <HAL_ADC_MspInit+0xa0>)
 8000e84:	429a      	cmp	r2, r3
 8000e86:	d141      	bne.n	8000f0c <HAL_ADC_MspInit+0x9c>
 8000e88:	2500      	movs	r5, #0
 8000e8a:	f503 338c 	add.w	r3, r3, #71680	; 0x11800
 8000e8e:	9501      	str	r5, [sp, #4]
 8000e90:	6c5a      	ldr	r2, [r3, #68]	; 0x44
 8000e92:	4820      	ldr	r0, [pc, #128]	; (8000f14 <HAL_ADC_MspInit+0xa4>)
 8000e94:	4c20      	ldr	r4, [pc, #128]	; (8000f18 <HAL_ADC_MspInit+0xa8>)
 8000e96:	f442 7280 	orr.w	r2, r2, #256	; 0x100
 8000e9a:	645a      	str	r2, [r3, #68]	; 0x44
 8000e9c:	6c5a      	ldr	r2, [r3, #68]	; 0x44
 8000e9e:	f402 7280 	and.w	r2, r2, #256	; 0x100
 8000ea2:	9201      	str	r2, [sp, #4]
 8000ea4:	9a01      	ldr	r2, [sp, #4]
 8000ea6:	9502      	str	r5, [sp, #8]
 8000ea8:	6b1a      	ldr	r2, [r3, #48]	; 0x30
 8000eaa:	f042 0202 	orr.w	r2, r2, #2
 8000eae:	631a      	str	r2, [r3, #48]	; 0x30
 8000eb0:	6b1b      	ldr	r3, [r3, #48]	; 0x30
 8000eb2:	9505      	str	r5, [sp, #20]
 8000eb4:	f003 0302 	and.w	r3, r3, #2
 8000eb8:	9302      	str	r3, [sp, #8]
 8000eba:	9b02      	ldr	r3, [sp, #8]
 8000ebc:	2201      	movs	r2, #1
 8000ebe:	2303      	movs	r3, #3
 8000ec0:	a903      	add	r1, sp, #12
 8000ec2:	e9cd 2303 	strd	r2, r3, [sp, #12]
 8000ec6:	f002 f821 	bl	8002f0c <HAL_GPIO_Init>
 8000eca:	4b14      	ldr	r3, [pc, #80]	; (8000f1c <HAL_ADC_MspInit+0xac>)
 8000ecc:	f44f 6180 	mov.w	r1, #1024	; 0x400
 8000ed0:	e9c4 3500 	strd	r3, r5, [r4]
 8000ed4:	f44f 6300 	mov.w	r3, #2048	; 0x800
 8000ed8:	e9c4 1304 	strd	r1, r3, [r4, #16]
 8000edc:	4620      	mov	r0, r4
 8000ede:	f44f 5300 	mov.w	r3, #8192	; 0x2000
 8000ee2:	e9c4 5502 	strd	r5, r5, [r4, #8]
 8000ee6:	e9c4 3506 	strd	r3, r5, [r4, #24]
 8000eea:	e9c4 5508 	strd	r5, r5, [r4, #32]
 8000eee:	f001 fe95 	bl	8002c1c <HAL_DMA_Init>
 8000ef2:	b108      	cbz	r0, 8000ef8 <HAL_ADC_MspInit+0x88>
 8000ef4:	f000 fb16 	bl	8001524 <Error_Handler>
 8000ef8:	2200      	movs	r2, #0
 8000efa:	63b4      	str	r4, [r6, #56]	; 0x38
 8000efc:	2012      	movs	r0, #18
 8000efe:	4611      	mov	r1, r2
 8000f00:	63a6      	str	r6, [r4, #56]	; 0x38
 8000f02:	f001 fe1f 	bl	8002b44 <HAL_NVIC_SetPriority>
 8000f06:	2012      	movs	r0, #18
 8000f08:	f001 fe4e 	bl	8002ba8 <HAL_NVIC_EnableIRQ>
 8000f0c:	b008      	add	sp, #32
 8000f0e:	bd70      	pop	{r4, r5, r6, pc}
 8000f10:	40012000 	.word	0x40012000
 8000f14:	40020400 	.word	0x40020400
 8000f18:	200001e4 	.word	0x200001e4
 8000f1c:	40026410 	.word	0x40026410

08000f20 <MX_APP_Init>:
 8000f20:	b510      	push	{r4, lr}
 8000f22:	2000      	movs	r0, #0
 8000f24:	f000 fed6 	bl	8001cd4 <BSP_LED_Init>
 8000f28:	2001      	movs	r0, #1
 8000f2a:	f000 fed3 	bl	8001cd4 <BSP_LED_Init>
 8000f2e:	2002      	movs	r0, #2
 8000f30:	f000 fed0 	bl	8001cd4 <BSP_LED_Init>
 8000f34:	f000 fe64 	bl	8001c00 <BSP_BUZZER_Init>
 8000f38:	f000 f8ae 	bl	8001098 <BOTONES_HW_Init>
 8000f3c:	f000 fcce 	bl	80018dc <PEDAL_HW_Init>
 8000f40:	f000 fc88 	bl	8001854 <PANTALLA_HW_Init>
 8000f44:	f000 f914 	bl	8001170 <CAN_HW_Init>
 8000f48:	2403      	movs	r4, #3
 8000f4a:	2000      	movs	r0, #0
 8000f4c:	f000 fef0 	bl	8001d30 <BSP_LED_On>
 8000f50:	2001      	movs	r0, #1
 8000f52:	f000 feed 	bl	8001d30 <BSP_LED_On>
 8000f56:	2002      	movs	r0, #2
 8000f58:	f000 feea 	bl	8001d30 <BSP_LED_On>
 8000f5c:	20c8      	movs	r0, #200	; 0xc8
 8000f5e:	f000 ffed 	bl	8001f3c <HAL_Delay>
 8000f62:	2000      	movs	r0, #0
 8000f64:	f000 fef4 	bl	8001d50 <BSP_LED_Off>
 8000f68:	2001      	movs	r0, #1
 8000f6a:	f000 fef1 	bl	8001d50 <BSP_LED_Off>
 8000f6e:	2002      	movs	r0, #2
 8000f70:	f000 feee 	bl	8001d50 <BSP_LED_Off>
 8000f74:	20c8      	movs	r0, #200	; 0xc8
 8000f76:	f000 ffe1 	bl	8001f3c <HAL_Delay>
 8000f7a:	3c01      	subs	r4, #1
 8000f7c:	d1e5      	bne.n	8000f4a <MX_APP_Init+0x2a>
 8000f7e:	bd10      	pop	{r4, pc}

08000f80 <MX_APP_Process>:
 8000f80:	b5f8      	push	{r3, r4, r5, r6, r7, lr}
 8000f82:	4e1c      	ldr	r6, [pc, #112]	; (8000ff4 <MX_APP_Process+0x74>)
 8000f84:	7834      	ldrb	r4, [r6, #0]
 8000f86:	b114      	cbz	r4, 8000f8e <MX_APP_Process+0xe>
 8000f88:	2c01      	cmp	r4, #1
 8000f8a:	d01e      	beq.n	8000fca <MX_APP_Process+0x4a>
 8000f8c:	bdf8      	pop	{r3, r4, r5, r6, r7, pc}
 8000f8e:	f000 ffcf 	bl	8001f30 <HAL_GetTick>
 8000f92:	4c19      	ldr	r4, [pc, #100]	; (8000ff8 <MX_APP_Process+0x78>)
 8000f94:	4f19      	ldr	r7, [pc, #100]	; (8000ffc <MX_APP_Process+0x7c>)
 8000f96:	6020      	str	r0, [r4, #0]
 8000f98:	f000 ffca 	bl	8001f30 <HAL_GetTick>
 8000f9c:	6823      	ldr	r3, [r4, #0]
 8000f9e:	1ac0      	subs	r0, r0, r3
 8000fa0:	28fa      	cmp	r0, #250	; 0xfa
 8000fa2:	d905      	bls.n	8000fb0 <MX_APP_Process+0x30>
 8000fa4:	2000      	movs	r0, #0
 8000fa6:	f000 fee3 	bl	8001d70 <BSP_LED_Toggle>
 8000faa:	f000 ffc1 	bl	8001f30 <HAL_GetTick>
 8000fae:	6020      	str	r0, [r4, #0]
 8000fb0:	78bd      	ldrb	r5, [r7, #2]
 8000fb2:	2d01      	cmp	r5, #1
 8000fb4:	d1f0      	bne.n	8000f98 <MX_APP_Process+0x18>
 8000fb6:	f44f 70fa 	mov.w	r0, #500	; 0x1f4
 8000fba:	f000 ffbf 	bl	8001f3c <HAL_Delay>
 8000fbe:	4b10      	ldr	r3, [pc, #64]	; (8001000 <MX_APP_Process+0x80>)
 8000fc0:	70dd      	strb	r5, [r3, #3]
 8000fc2:	f000 fa19 	bl	80013f8 <INDICATORS_Finish_StartUp>
 8000fc6:	7035      	strb	r5, [r6, #0]
 8000fc8:	e7e0      	b.n	8000f8c <MX_APP_Process+0xc>
 8000fca:	f000 f81d 	bl	8001008 <BOTONES_Process>
 8000fce:	f000 fc43 	bl	8001858 <PEDAL_Process>
 8000fd2:	f000 faa9 	bl	8001528 <PANTALLA_Process>
 8000fd6:	f000 fa4a 	bl	800146e <INDICATORS_Process>
 8000fda:	f000 f905 	bl	80011e8 <DECODE_DATA_Process>
 8000fde:	4b09      	ldr	r3, [pc, #36]	; (8001004 <MX_APP_Process+0x84>)
 8000fe0:	781a      	ldrb	r2, [r3, #0]
 8000fe2:	2a00      	cmp	r2, #0
 8000fe4:	d1d2      	bne.n	8000f8c <MX_APP_Process+0xc>
 8000fe6:	701c      	strb	r4, [r3, #0]
 8000fe8:	4620      	mov	r0, r4
 8000fea:	e8bd 40f8 	ldmia.w	sp!, {r3, r4, r5, r6, r7, lr}
 8000fee:	f000 bebf 	b.w	8001d70 <BSP_LED_Toggle>
 8000ff2:	bf00      	nop
 8000ff4:	200000dc 	.word	0x200000dc
 8000ff8:	200000e0 	.word	0x200000e0
 8000ffc:	20000000 	.word	0x20000000
 8001000:	20000008 	.word	0x20000008
 8001004:	20000038 	.word	0x20000038

08001008 <BOTONES_Process>:
 8001008:	b510      	push	{r4, lr}
 800100a:	2108      	movs	r1, #8
 800100c:	481f      	ldr	r0, [pc, #124]	; (800108c <BOTONES_Process+0x84>)
 800100e:	4c20      	ldr	r4, [pc, #128]	; (8001090 <BOTONES_Process+0x88>)
 8001010:	f002 f850 	bl	80030b4 <HAL_GPIO_ReadPin>
 8001014:	fab0 f080 	clz	r0, r0
 8001018:	0940      	lsrs	r0, r0, #5
 800101a:	7060      	strb	r0, [r4, #1]
 800101c:	2110      	movs	r1, #16
 800101e:	481b      	ldr	r0, [pc, #108]	; (800108c <BOTONES_Process+0x84>)
 8001020:	f002 f848 	bl	80030b4 <HAL_GPIO_ReadPin>
 8001024:	4601      	mov	r1, r0
 8001026:	fab0 f080 	clz	r0, r0
 800102a:	0940      	lsrs	r0, r0, #5
 800102c:	70a0      	strb	r0, [r4, #2]
 800102e:	6822      	ldr	r2, [r4, #0]
 8001030:	f022 427f 	bic.w	r2, r2, #4278190080	; 0xff000000
 8001034:	f022 02ff 	bic.w	r2, r2, #255	; 0xff
 8001038:	4623      	mov	r3, r4
 800103a:	b92a      	cbnz	r2, 8001048 <BOTONES_Process+0x40>
 800103c:	2201      	movs	r2, #1
 800103e:	70e2      	strb	r2, [r4, #3]
 8001040:	4a14      	ldr	r2, [pc, #80]	; (8001094 <BOTONES_Process+0x8c>)
 8001042:	2101      	movs	r1, #1
 8001044:	7051      	strb	r1, [r2, #1]
 8001046:	e00d      	b.n	8001064 <BOTONES_Process+0x5c>
 8001048:	7862      	ldrb	r2, [r4, #1]
 800104a:	2a01      	cmp	r2, #1
 800104c:	d000      	beq.n	8001050 <BOTONES_Process+0x48>
 800104e:	b921      	cbnz	r1, 800105a <BOTONES_Process+0x52>
 8001050:	2200      	movs	r2, #0
 8001052:	70da      	strb	r2, [r3, #3]
 8001054:	4a0f      	ldr	r2, [pc, #60]	; (8001094 <BOTONES_Process+0x8c>)
 8001056:	2102      	movs	r1, #2
 8001058:	e7f4      	b.n	8001044 <BOTONES_Process+0x3c>
 800105a:	78e2      	ldrb	r2, [r4, #3]
 800105c:	2a00      	cmp	r2, #0
 800105e:	d0f9      	beq.n	8001054 <BOTONES_Process+0x4c>
 8001060:	2a01      	cmp	r2, #1
 8001062:	d0ed      	beq.n	8001040 <BOTONES_Process+0x38>
 8001064:	781b      	ldrb	r3, [r3, #0]
 8001066:	2b03      	cmp	r3, #3
 8001068:	d806      	bhi.n	8001078 <BOTONES_Process+0x70>
 800106a:	e8df f003 	tbb	[pc, r3]
 800106e:	0602      	.short	0x0602
 8001070:	0c09      	.short	0x0c09
 8001072:	4b08      	ldr	r3, [pc, #32]	; (8001094 <BOTONES_Process+0x8c>)
 8001074:	2204      	movs	r2, #4
 8001076:	709a      	strb	r2, [r3, #2]
 8001078:	bd10      	pop	{r4, pc}
 800107a:	4b06      	ldr	r3, [pc, #24]	; (8001094 <BOTONES_Process+0x8c>)
 800107c:	2202      	movs	r2, #2
 800107e:	e7fa      	b.n	8001076 <BOTONES_Process+0x6e>
 8001080:	4b04      	ldr	r3, [pc, #16]	; (8001094 <BOTONES_Process+0x8c>)
 8001082:	2201      	movs	r2, #1
 8001084:	e7f7      	b.n	8001076 <BOTONES_Process+0x6e>
 8001086:	4b03      	ldr	r3, [pc, #12]	; (8001094 <BOTONES_Process+0x8c>)
 8001088:	2203      	movs	r2, #3
 800108a:	e7f4      	b.n	8001076 <BOTONES_Process+0x6e>
 800108c:	40021000 	.word	0x40021000
 8001090:	2000000c 	.word	0x2000000c
 8001094:	20000008 	.word	0x20000008

08001098 <BOTONES_HW_Init>:
 8001098:	f000 b932 	b.w	8001300 <MX_GPIO_Init>

0800109c <MX_CAN2_Init>:
 800109c:	480d      	ldr	r0, [pc, #52]	; (80010d4 <MX_CAN2_Init+0x38>)
 800109e:	4a0e      	ldr	r2, [pc, #56]	; (80010d8 <MX_CAN2_Init+0x3c>)
 80010a0:	b508      	push	{r3, lr}
 80010a2:	2310      	movs	r3, #16
 80010a4:	e9c0 2300 	strd	r2, r3, [r0]
 80010a8:	f44f 2180 	mov.w	r1, #262144	; 0x40000
 80010ac:	f44f 1240 	mov.w	r2, #3145728	; 0x300000
 80010b0:	2300      	movs	r3, #0
 80010b2:	e9c0 1204 	strd	r1, r2, [r0, #16]
 80010b6:	f04f 7280 	mov.w	r2, #16777216	; 0x1000000
 80010ba:	6182      	str	r2, [r0, #24]
 80010bc:	8383      	strh	r3, [r0, #28]
 80010be:	e9c0 3302 	strd	r3, r3, [r0, #8]
 80010c2:	f001 fa1a 	bl	80024fa <HAL_CAN_Init>
 80010c6:	b118      	cbz	r0, 80010d0 <MX_CAN2_Init+0x34>
 80010c8:	e8bd 4008 	ldmia.w	sp!, {r3, lr}
 80010cc:	f000 ba2a 	b.w	8001524 <Error_Handler>
 80010d0:	bd08      	pop	{r3, pc}
 80010d2:	bf00      	nop
 80010d4:	20000244 	.word	0x20000244
 80010d8:	40006800 	.word	0x40006800

080010dc <HAL_CAN_MspInit>:
 80010dc:	b510      	push	{r4, lr}
 80010de:	4604      	mov	r4, r0
 80010e0:	b088      	sub	sp, #32
 80010e2:	2214      	movs	r2, #20
 80010e4:	2100      	movs	r1, #0
 80010e6:	a803      	add	r0, sp, #12
 80010e8:	f003 f89a 	bl	8004220 <memset>
 80010ec:	6822      	ldr	r2, [r4, #0]
 80010ee:	4b1e      	ldr	r3, [pc, #120]	; (8001168 <HAL_CAN_MspInit+0x8c>)
 80010f0:	429a      	cmp	r2, r3
 80010f2:	d136      	bne.n	8001162 <HAL_CAN_MspInit+0x86>
 80010f4:	f503 33e8 	add.w	r3, r3, #118784	; 0x1d000
 80010f8:	2400      	movs	r4, #0
 80010fa:	9400      	str	r4, [sp, #0]
 80010fc:	6c1a      	ldr	r2, [r3, #64]	; 0x40
 80010fe:	481b      	ldr	r0, [pc, #108]	; (800116c <HAL_CAN_MspInit+0x90>)
 8001100:	f042 6280 	orr.w	r2, r2, #67108864	; 0x4000000
 8001104:	641a      	str	r2, [r3, #64]	; 0x40
 8001106:	6c1a      	ldr	r2, [r3, #64]	; 0x40
 8001108:	f002 6280 	and.w	r2, r2, #67108864	; 0x4000000
 800110c:	9200      	str	r2, [sp, #0]
 800110e:	9a00      	ldr	r2, [sp, #0]
 8001110:	9401      	str	r4, [sp, #4]
 8001112:	6c1a      	ldr	r2, [r3, #64]	; 0x40
 8001114:	f042 7200 	orr.w	r2, r2, #33554432	; 0x2000000
 8001118:	641a      	str	r2, [r3, #64]	; 0x40
 800111a:	6c1a      	ldr	r2, [r3, #64]	; 0x40
 800111c:	f002 7200 	and.w	r2, r2, #33554432	; 0x2000000
 8001120:	9201      	str	r2, [sp, #4]
 8001122:	9a01      	ldr	r2, [sp, #4]
 8001124:	9402      	str	r4, [sp, #8]
 8001126:	6b1a      	ldr	r2, [r3, #48]	; 0x30
 8001128:	f042 0202 	orr.w	r2, r2, #2
 800112c:	631a      	str	r2, [r3, #48]	; 0x30
 800112e:	6b1b      	ldr	r3, [r3, #48]	; 0x30
 8001130:	9405      	str	r4, [sp, #20]
 8001132:	f003 0302 	and.w	r3, r3, #2
 8001136:	9302      	str	r3, [sp, #8]
 8001138:	f44f 5240 	mov.w	r2, #12288	; 0x3000
 800113c:	9b02      	ldr	r3, [sp, #8]
 800113e:	2302      	movs	r3, #2
 8001140:	e9cd 2303 	strd	r2, r3, [sp, #12]
 8001144:	2103      	movs	r1, #3
 8001146:	2309      	movs	r3, #9
 8001148:	e9cd 1306 	strd	r1, r3, [sp, #24]
 800114c:	a903      	add	r1, sp, #12
 800114e:	f001 fedd 	bl	8002f0c <HAL_GPIO_Init>
 8001152:	2040      	movs	r0, #64	; 0x40
 8001154:	4622      	mov	r2, r4
 8001156:	4621      	mov	r1, r4
 8001158:	f001 fcf4 	bl	8002b44 <HAL_NVIC_SetPriority>
 800115c:	2040      	movs	r0, #64	; 0x40
 800115e:	f001 fd23 	bl	8002ba8 <HAL_NVIC_EnableIRQ>
 8001162:	b008      	add	sp, #32
 8001164:	bd10      	pop	{r4, pc}
 8001166:	bf00      	nop
 8001168:	40006800 	.word	0x40006800
 800116c:	40020400 	.word	0x40020400

08001170 <CAN_HW_Init>:
 8001170:	b51f      	push	{r0, r1, r2, r3, r4, lr}
 8001172:	4b07      	ldr	r3, [pc, #28]	; (8001190 <CAN_HW_Init+0x20>)
 8001174:	9302      	str	r3, [sp, #8]
 8001176:	4b07      	ldr	r3, [pc, #28]	; (8001194 <CAN_HW_Init+0x24>)
 8001178:	9301      	str	r3, [sp, #4]
 800117a:	2200      	movs	r2, #0
 800117c:	4b06      	ldr	r3, [pc, #24]	; (8001198 <CAN_HW_Init+0x28>)
 800117e:	9300      	str	r3, [sp, #0]
 8001180:	4611      	mov	r1, r2
 8001182:	4b06      	ldr	r3, [pc, #24]	; (800119c <CAN_HW_Init+0x2c>)
 8001184:	4806      	ldr	r0, [pc, #24]	; (80011a0 <CAN_HW_Init+0x30>)
 8001186:	f000 fe03 	bl	8001d90 <CAN_API_Init>
 800118a:	b005      	add	sp, #20
 800118c:	f85d fb04 	ldr.w	pc, [sp], #4
 8001190:	08001e85 	.word	0x08001e85
 8001194:	08001e61 	.word	0x08001e61
 8001198:	08001e31 	.word	0x08001e31
 800119c:	08001db9 	.word	0x08001db9
 80011a0:	2000026c 	.word	0x2000026c

080011a4 <HAL_CAN_RxFifo0MsgPendingCallback>:
 80011a4:	b508      	push	{r3, lr}
 80011a6:	4b06      	ldr	r3, [pc, #24]	; (80011c0 <HAL_CAN_RxFifo0MsgPendingCallback+0x1c>)
 80011a8:	4806      	ldr	r0, [pc, #24]	; (80011c4 <HAL_CAN_RxFifo0MsgPendingCallback+0x20>)
 80011aa:	2200      	movs	r2, #0
 80011ac:	701a      	strb	r2, [r3, #0]
 80011ae:	f000 fdfe 	bl	8001dae <CAN_API_Read_Message>
 80011b2:	b118      	cbz	r0, 80011bc <HAL_CAN_RxFifo0MsgPendingCallback+0x18>
 80011b4:	e8bd 4008 	ldmia.w	sp!, {r3, lr}
 80011b8:	f000 b9b4 	b.w	8001524 <Error_Handler>
 80011bc:	bd08      	pop	{r3, pc}
 80011be:	bf00      	nop
 80011c0:	20000038 	.word	0x20000038
 80011c4:	2000026c 	.word	0x2000026c

080011c8 <HAL_TIM_PeriodElapsedCallback>:
 80011c8:	b508      	push	{r3, lr}
 80011ca:	4b05      	ldr	r3, [pc, #20]	; (80011e0 <HAL_TIM_PeriodElapsedCallback+0x18>)
 80011cc:	4283      	cmp	r3, r0
 80011ce:	d105      	bne.n	80011dc <HAL_TIM_PeriodElapsedCallback+0x14>
 80011d0:	2000      	movs	r0, #0
 80011d2:	f000 fdcd 	bl	8001d70 <BSP_LED_Toggle>
 80011d6:	4b03      	ldr	r3, [pc, #12]	; (80011e4 <HAL_TIM_PeriodElapsedCallback+0x1c>)
 80011d8:	2200      	movs	r2, #0
 80011da:	701a      	strb	r2, [r3, #0]
 80011dc:	bd08      	pop	{r3, pc}
 80011de:	bf00      	nop
 80011e0:	200002ec 	.word	0x200002ec
 80011e4:	200000e4 	.word	0x200000e4

080011e8 <DECODE_DATA_Process>:
 80011e8:	4833      	ldr	r0, [pc, #204]	; (80012b8 <DECODE_DATA_Process+0xd0>)
 80011ea:	7802      	ldrb	r2, [r0, #0]
 80011ec:	2a00      	cmp	r2, #0
 80011ee:	d155      	bne.n	800129c <DECODE_DATA_Process+0xb4>
 80011f0:	4b32      	ldr	r3, [pc, #200]	; (80012bc <DECODE_DATA_Process+0xd4>)
 80011f2:	7899      	ldrb	r1, [r3, #2]
 80011f4:	2901      	cmp	r1, #1
 80011f6:	d00c      	beq.n	8001212 <DECODE_DATA_Process+0x2a>
 80011f8:	2902      	cmp	r1, #2
 80011fa:	d00e      	beq.n	800121a <DECODE_DATA_Process+0x32>
 80011fc:	781a      	ldrb	r2, [r3, #0]
 80011fe:	2a03      	cmp	r2, #3
 8001200:	d010      	beq.n	8001224 <DECODE_DATA_Process+0x3c>
 8001202:	2a04      	cmp	r2, #4
 8001204:	d019      	beq.n	800123a <DECODE_DATA_Process+0x52>
 8001206:	2a02      	cmp	r2, #2
 8001208:	d110      	bne.n	800122c <DECODE_DATA_Process+0x44>
 800120a:	4a2d      	ldr	r2, [pc, #180]	; (80012c0 <DECODE_DATA_Process+0xd8>)
 800120c:	2101      	movs	r1, #1
 800120e:	6812      	ldr	r2, [r2, #0]
 8001210:	e00b      	b.n	800122a <DECODE_DATA_Process+0x42>
 8001212:	492b      	ldr	r1, [pc, #172]	; (80012c0 <DECODE_DATA_Process+0xd8>)
 8001214:	6809      	ldr	r1, [r1, #0]
 8001216:	708a      	strb	r2, [r1, #2]
 8001218:	e7f0      	b.n	80011fc <DECODE_DATA_Process+0x14>
 800121a:	4a29      	ldr	r2, [pc, #164]	; (80012c0 <DECODE_DATA_Process+0xd8>)
 800121c:	6812      	ldr	r2, [r2, #0]
 800121e:	2101      	movs	r1, #1
 8001220:	7091      	strb	r1, [r2, #2]
 8001222:	e7eb      	b.n	80011fc <DECODE_DATA_Process+0x14>
 8001224:	4a26      	ldr	r2, [pc, #152]	; (80012c0 <DECODE_DATA_Process+0xd8>)
 8001226:	6812      	ldr	r2, [r2, #0]
 8001228:	2100      	movs	r1, #0
 800122a:	7011      	strb	r1, [r2, #0]
 800122c:	785a      	ldrb	r2, [r3, #1]
 800122e:	2a03      	cmp	r2, #3
 8001230:	d80b      	bhi.n	800124a <DECODE_DATA_Process+0x62>
 8001232:	e8df f002 	tbb	[pc, r2]
 8001236:	3406      	.short	0x3406
 8001238:	3c38      	.short	0x3c38
 800123a:	4a21      	ldr	r2, [pc, #132]	; (80012c0 <DECODE_DATA_Process+0xd8>)
 800123c:	2102      	movs	r1, #2
 800123e:	6812      	ldr	r2, [r2, #0]
 8001240:	e7f3      	b.n	800122a <DECODE_DATA_Process+0x42>
 8001242:	4a1f      	ldr	r2, [pc, #124]	; (80012c0 <DECODE_DATA_Process+0xd8>)
 8001244:	6812      	ldr	r2, [r2, #0]
 8001246:	2100      	movs	r1, #0
 8001248:	7051      	strb	r1, [r2, #1]
 800124a:	78d9      	ldrb	r1, [r3, #3]
 800124c:	4a1d      	ldr	r2, [pc, #116]	; (80012c4 <DECODE_DATA_Process+0xdc>)
 800124e:	ee07 1a90 	vmov	s15, r1
 8001252:	6812      	ldr	r2, [r2, #0]
 8001254:	eef8 7a67 	vcvt.f32.u32	s15, s15
 8001258:	edc2 7a00 	vstr	s15, [r2]
 800125c:	7919      	ldrb	r1, [r3, #4]
 800125e:	ee07 1a90 	vmov	s15, r1
 8001262:	eef8 7a67 	vcvt.f32.u32	s15, s15
 8001266:	edc2 7a01 	vstr	s15, [r2, #4]
 800126a:	7959      	ldrb	r1, [r3, #5]
 800126c:	ee07 1a90 	vmov	s15, r1
 8001270:	7999      	ldrb	r1, [r3, #6]
 8001272:	79db      	ldrb	r3, [r3, #7]
 8001274:	eef8 7a67 	vcvt.f32.u32	s15, s15
 8001278:	edc2 7a03 	vstr	s15, [r2, #12]
 800127c:	ee07 1a90 	vmov	s15, r1
 8001280:	eef8 7a67 	vcvt.f32.u32	s15, s15
 8001284:	edc2 7a05 	vstr	s15, [r2, #20]
 8001288:	ee07 3a90 	vmov	s15, r3
 800128c:	4a0e      	ldr	r2, [pc, #56]	; (80012c8 <DECODE_DATA_Process+0xe0>)
 800128e:	eef8 7a67 	vcvt.f32.u32	s15, s15
 8001292:	6812      	ldr	r2, [r2, #0]
 8001294:	2301      	movs	r3, #1
 8001296:	edc2 7a00 	vstr	s15, [r2]
 800129a:	7003      	strb	r3, [r0, #0]
 800129c:	4770      	bx	lr
 800129e:	4a08      	ldr	r2, [pc, #32]	; (80012c0 <DECODE_DATA_Process+0xd8>)
 80012a0:	2101      	movs	r1, #1
 80012a2:	6812      	ldr	r2, [r2, #0]
 80012a4:	e7d0      	b.n	8001248 <DECODE_DATA_Process+0x60>
 80012a6:	4a06      	ldr	r2, [pc, #24]	; (80012c0 <DECODE_DATA_Process+0xd8>)
 80012a8:	6812      	ldr	r2, [r2, #0]
 80012aa:	2102      	movs	r1, #2
 80012ac:	7051      	strb	r1, [r2, #1]
 80012ae:	4a04      	ldr	r2, [pc, #16]	; (80012c0 <DECODE_DATA_Process+0xd8>)
 80012b0:	2103      	movs	r1, #3
 80012b2:	6812      	ldr	r2, [r2, #0]
 80012b4:	e7c8      	b.n	8001248 <DECODE_DATA_Process+0x60>
 80012b6:	bf00      	nop
 80012b8:	20000048 	.word	0x20000048
 80012bc:	20000000 	.word	0x20000000
 80012c0:	20000040 	.word	0x20000040
 80012c4:	2000003c 	.word	0x2000003c
 80012c8:	20000044 	.word	0x20000044

080012cc <MX_DMA_Init>:
 80012cc:	b507      	push	{r0, r1, r2, lr}
 80012ce:	4b0b      	ldr	r3, [pc, #44]	; (80012fc <MX_DMA_Init+0x30>)
 80012d0:	2200      	movs	r2, #0
 80012d2:	9201      	str	r2, [sp, #4]
 80012d4:	6b19      	ldr	r1, [r3, #48]	; 0x30
 80012d6:	f441 0180 	orr.w	r1, r1, #4194304	; 0x400000
 80012da:	6319      	str	r1, [r3, #48]	; 0x30
 80012dc:	6b1b      	ldr	r3, [r3, #48]	; 0x30
 80012de:	f403 0380 	and.w	r3, r3, #4194304	; 0x400000
 80012e2:	9301      	str	r3, [sp, #4]
 80012e4:	4611      	mov	r1, r2
 80012e6:	2038      	movs	r0, #56	; 0x38
 80012e8:	9b01      	ldr	r3, [sp, #4]
 80012ea:	f001 fc2b 	bl	8002b44 <HAL_NVIC_SetPriority>
 80012ee:	2038      	movs	r0, #56	; 0x38
 80012f0:	b003      	add	sp, #12
 80012f2:	f85d eb04 	ldr.w	lr, [sp], #4
 80012f6:	f001 bc57 	b.w	8002ba8 <HAL_NVIC_EnableIRQ>
 80012fa:	bf00      	nop
 80012fc:	40023800 	.word	0x40023800

08001300 <MX_GPIO_Init>:
 8001300:	b5f0      	push	{r4, r5, r6, r7, lr}
 8001302:	2214      	movs	r2, #20
 8001304:	b08b      	sub	sp, #44	; 0x2c
 8001306:	eb0d 0002 	add.w	r0, sp, r2
 800130a:	2100      	movs	r1, #0
 800130c:	f002 ff88 	bl	8004220 <memset>
 8001310:	2400      	movs	r4, #0
 8001312:	4b35      	ldr	r3, [pc, #212]	; (80013e8 <MX_GPIO_Init+0xe8>)
 8001314:	9400      	str	r4, [sp, #0]
 8001316:	6b1a      	ldr	r2, [r3, #48]	; 0x30
 8001318:	4f34      	ldr	r7, [pc, #208]	; (80013ec <MX_GPIO_Init+0xec>)
 800131a:	4d35      	ldr	r5, [pc, #212]	; (80013f0 <MX_GPIO_Init+0xf0>)
 800131c:	f042 0210 	orr.w	r2, r2, #16
 8001320:	631a      	str	r2, [r3, #48]	; 0x30
 8001322:	6b1a      	ldr	r2, [r3, #48]	; 0x30
 8001324:	f002 0210 	and.w	r2, r2, #16
 8001328:	9200      	str	r2, [sp, #0]
 800132a:	9a00      	ldr	r2, [sp, #0]
 800132c:	9401      	str	r4, [sp, #4]
 800132e:	6b1a      	ldr	r2, [r3, #48]	; 0x30
 8001330:	f042 0280 	orr.w	r2, r2, #128	; 0x80
 8001334:	631a      	str	r2, [r3, #48]	; 0x30
 8001336:	6b1a      	ldr	r2, [r3, #48]	; 0x30
 8001338:	f002 0280 	and.w	r2, r2, #128	; 0x80
 800133c:	9201      	str	r2, [sp, #4]
 800133e:	9a01      	ldr	r2, [sp, #4]
 8001340:	9402      	str	r4, [sp, #8]
 8001342:	6b1a      	ldr	r2, [r3, #48]	; 0x30
 8001344:	f042 0202 	orr.w	r2, r2, #2
 8001348:	631a      	str	r2, [r3, #48]	; 0x30
 800134a:	6b1a      	ldr	r2, [r3, #48]	; 0x30
 800134c:	f002 0202 	and.w	r2, r2, #2
 8001350:	9202      	str	r2, [sp, #8]
 8001352:	9a02      	ldr	r2, [sp, #8]
 8001354:	9403      	str	r4, [sp, #12]
 8001356:	6b1a      	ldr	r2, [r3, #48]	; 0x30
 8001358:	f042 0204 	orr.w	r2, r2, #4
 800135c:	631a      	str	r2, [r3, #48]	; 0x30
 800135e:	6b1a      	ldr	r2, [r3, #48]	; 0x30
 8001360:	f002 0204 	and.w	r2, r2, #4
 8001364:	9203      	str	r2, [sp, #12]
 8001366:	9a03      	ldr	r2, [sp, #12]
 8001368:	9404      	str	r4, [sp, #16]
 800136a:	6b1a      	ldr	r2, [r3, #48]	; 0x30
 800136c:	f042 0201 	orr.w	r2, r2, #1
 8001370:	631a      	str	r2, [r3, #48]	; 0x30
 8001372:	6b1b      	ldr	r3, [r3, #48]	; 0x30
 8001374:	f003 0301 	and.w	r3, r3, #1
 8001378:	9304      	str	r3, [sp, #16]
 800137a:	4622      	mov	r2, r4
 800137c:	4638      	mov	r0, r7
 800137e:	f44f 7100 	mov.w	r1, #512	; 0x200
 8001382:	9b04      	ldr	r3, [sp, #16]
 8001384:	f001 fe9c 	bl	80030c0 <HAL_GPIO_WritePin>
 8001388:	4622      	mov	r2, r4
 800138a:	4628      	mov	r0, r5
 800138c:	f44f 6120 	mov.w	r1, #2560	; 0xa00
 8001390:	f001 fe96 	bl	80030c0 <HAL_GPIO_WritePin>
 8001394:	2318      	movs	r3, #24
 8001396:	a905      	add	r1, sp, #20
 8001398:	4816      	ldr	r0, [pc, #88]	; (80013f4 <MX_GPIO_Init+0xf4>)
 800139a:	9407      	str	r4, [sp, #28]
 800139c:	e9cd 3405 	strd	r3, r4, [sp, #20]
 80013a0:	2601      	movs	r6, #1
 80013a2:	f001 fdb3 	bl	8002f0c <HAL_GPIO_Init>
 80013a6:	f44f 7300 	mov.w	r3, #512	; 0x200
 80013aa:	a905      	add	r1, sp, #20
 80013ac:	4638      	mov	r0, r7
 80013ae:	e9cd 3605 	strd	r3, r6, [sp, #20]
 80013b2:	e9cd 4407 	strd	r4, r4, [sp, #28]
 80013b6:	f001 fda9 	bl	8002f0c <HAL_GPIO_Init>
 80013ba:	f44f 52a8 	mov.w	r2, #5376	; 0x1500
 80013be:	f44f 1388 	mov.w	r3, #1114112	; 0x110000
 80013c2:	a905      	add	r1, sp, #20
 80013c4:	4628      	mov	r0, r5
 80013c6:	e9cd 2305 	strd	r2, r3, [sp, #20]
 80013ca:	9407      	str	r4, [sp, #28]
 80013cc:	f001 fd9e 	bl	8002f0c <HAL_GPIO_Init>
 80013d0:	f44f 6320 	mov.w	r3, #2560	; 0xa00
 80013d4:	a905      	add	r1, sp, #20
 80013d6:	4628      	mov	r0, r5
 80013d8:	e9cd 3605 	strd	r3, r6, [sp, #20]
 80013dc:	e9cd 4407 	strd	r4, r4, [sp, #28]
 80013e0:	f001 fd94 	bl	8002f0c <HAL_GPIO_Init>
 80013e4:	b00b      	add	sp, #44	; 0x2c
 80013e6:	bdf0      	pop	{r4, r5, r6, r7, pc}
 80013e8:	40023800 	.word	0x40023800
 80013ec:	40020800 	.word	0x40020800
 80013f0:	40020000 	.word	0x40020000
 80013f4:	40021000 	.word	0x40021000

080013f8 <INDICATORS_Finish_StartUp>:
 80013f8:	b538      	push	{r3, r4, r5, lr}
 80013fa:	f000 fc53 	bl	8001ca4 <BSP_BUZZER_On>
 80013fe:	f000 fd97 	bl	8001f30 <HAL_GetTick>
 8001402:	4604      	mov	r4, r0
 8001404:	2000      	movs	r0, #0
 8001406:	f000 fca3 	bl	8001d50 <BSP_LED_Off>
 800140a:	2001      	movs	r0, #1
 800140c:	f000 fca0 	bl	8001d50 <BSP_LED_Off>
 8001410:	2002      	movs	r0, #2
 8001412:	f000 fc9d 	bl	8001d50 <BSP_LED_Off>
 8001416:	4625      	mov	r5, r4
 8001418:	f000 fd8a 	bl	8001f30 <HAL_GetTick>
 800141c:	1b40      	subs	r0, r0, r5
 800141e:	28fa      	cmp	r0, #250	; 0xfa
 8001420:	d90b      	bls.n	800143a <INDICATORS_Finish_StartUp+0x42>
 8001422:	2000      	movs	r0, #0
 8001424:	f000 fca4 	bl	8001d70 <BSP_LED_Toggle>
 8001428:	2001      	movs	r0, #1
 800142a:	f000 fca1 	bl	8001d70 <BSP_LED_Toggle>
 800142e:	2002      	movs	r0, #2
 8001430:	f000 fc9e 	bl	8001d70 <BSP_LED_Toggle>
 8001434:	f000 fd7c 	bl	8001f30 <HAL_GetTick>
 8001438:	4605      	mov	r5, r0
 800143a:	f000 fd79 	bl	8001f30 <HAL_GetTick>
 800143e:	1b00      	subs	r0, r0, r4
 8001440:	f5b0 6ffa 	cmp.w	r0, #2000	; 0x7d0
 8001444:	d901      	bls.n	800144a <INDICATORS_Finish_StartUp+0x52>
 8001446:	f000 fc3b 	bl	8001cc0 <BSP_BUZZER_Off>
 800144a:	f000 fd71 	bl	8001f30 <HAL_GetTick>
 800144e:	f640 33b8 	movw	r3, #3000	; 0xbb8
 8001452:	1b00      	subs	r0, r0, r4
 8001454:	4298      	cmp	r0, r3
 8001456:	d9df      	bls.n	8001418 <INDICATORS_Finish_StartUp+0x20>
 8001458:	2000      	movs	r0, #0
 800145a:	f000 fc79 	bl	8001d50 <BSP_LED_Off>
 800145e:	2001      	movs	r0, #1
 8001460:	f000 fc76 	bl	8001d50 <BSP_LED_Off>
 8001464:	e8bd 4038 	ldmia.w	sp!, {r3, r4, r5, lr}
 8001468:	2002      	movs	r0, #2
 800146a:	f000 bc71 	b.w	8001d50 <BSP_LED_Off>

0800146e <INDICATORS_Process>:
 800146e:	4770      	bx	lr

08001470 <SystemClock_Config>:
 8001470:	b510      	push	{r4, lr}
 8001472:	b094      	sub	sp, #80	; 0x50
 8001474:	2214      	movs	r2, #20
 8001476:	2100      	movs	r1, #0
 8001478:	a808      	add	r0, sp, #32
 800147a:	f002 fed1 	bl	8004220 <memset>
 800147e:	2214      	movs	r2, #20
 8001480:	2100      	movs	r1, #0
 8001482:	a802      	add	r0, sp, #8
 8001484:	f002 fecc 	bl	8004220 <memset>
 8001488:	4b1f      	ldr	r3, [pc, #124]	; (8001508 <SystemClock_Config+0x98>)
 800148a:	2200      	movs	r2, #0
 800148c:	9200      	str	r2, [sp, #0]
 800148e:	6c19      	ldr	r1, [r3, #64]	; 0x40
 8001490:	f041 5180 	orr.w	r1, r1, #268435456	; 0x10000000
 8001494:	6419      	str	r1, [r3, #64]	; 0x40
 8001496:	6c1b      	ldr	r3, [r3, #64]	; 0x40
 8001498:	491c      	ldr	r1, [pc, #112]	; (800150c <SystemClock_Config+0x9c>)
 800149a:	f003 5380 	and.w	r3, r3, #268435456	; 0x10000000
 800149e:	9300      	str	r3, [sp, #0]
 80014a0:	9b00      	ldr	r3, [sp, #0]
 80014a2:	9201      	str	r2, [sp, #4]
 80014a4:	680b      	ldr	r3, [r1, #0]
 80014a6:	f423 4340 	bic.w	r3, r3, #49152	; 0xc000
 80014aa:	f443 4380 	orr.w	r3, r3, #16384	; 0x4000
 80014ae:	600b      	str	r3, [r1, #0]
 80014b0:	680b      	ldr	r3, [r1, #0]
 80014b2:	f403 4340 	and.w	r3, r3, #49152	; 0xc000
 80014b6:	9301      	str	r3, [sp, #4]
 80014b8:	9b01      	ldr	r3, [sp, #4]
 80014ba:	2101      	movs	r1, #1
 80014bc:	2310      	movs	r3, #16
 80014be:	2008      	movs	r0, #8
 80014c0:	e9cd 130a 	strd	r1, r3, [sp, #40]	; 0x28
 80014c4:	2350      	movs	r3, #80	; 0x50
 80014c6:	2402      	movs	r4, #2
 80014c8:	e9cd 030f 	strd	r0, r3, [sp, #60]	; 0x3c
 80014cc:	a807      	add	r0, sp, #28
 80014ce:	e9cd 420d 	strd	r4, r2, [sp, #52]	; 0x34
 80014d2:	e9cd 4411 	strd	r4, r4, [sp, #68]	; 0x44
 80014d6:	9407      	str	r4, [sp, #28]
 80014d8:	9413      	str	r4, [sp, #76]	; 0x4c
 80014da:	f001 ff03 	bl	80032e4 <HAL_RCC_OscConfig>
 80014de:	b108      	cbz	r0, 80014e4 <SystemClock_Config+0x74>
 80014e0:	b672      	cpsid	i
 80014e2:	e7fe      	b.n	80014e2 <SystemClock_Config+0x72>
 80014e4:	230f      	movs	r3, #15
 80014e6:	e9cd 3402 	strd	r3, r4, [sp, #8]
 80014ea:	f44f 5380 	mov.w	r3, #4096	; 0x1000
 80014ee:	e9cd 3005 	strd	r3, r0, [sp, #20]
 80014f2:	9004      	str	r0, [sp, #16]
 80014f4:	4621      	mov	r1, r4
 80014f6:	a802      	add	r0, sp, #8
 80014f8:	f001 fdf0 	bl	80030dc <HAL_RCC_ClockConfig>
 80014fc:	b108      	cbz	r0, 8001502 <SystemClock_Config+0x92>
 80014fe:	b672      	cpsid	i
 8001500:	e7fe      	b.n	8001500 <SystemClock_Config+0x90>
 8001502:	b014      	add	sp, #80	; 0x50
 8001504:	bd10      	pop	{r4, pc}
 8001506:	bf00      	nop
 8001508:	40023800 	.word	0x40023800
 800150c:	40007000 	.word	0x40007000

08001510 <main>:
 8001510:	b508      	push	{r3, lr}
 8001512:	f000 fce7 	bl	8001ee4 <HAL_Init>
 8001516:	f7ff ffab 	bl	8001470 <SystemClock_Config>
 800151a:	f7ff fd01 	bl	8000f20 <MX_APP_Init>
 800151e:	f7ff fd2f 	bl	8000f80 <MX_APP_Process>
 8001522:	e7fc      	b.n	800151e <main+0xe>

08001524 <Error_Handler>:
 8001524:	b672      	cpsid	i
 8001526:	e7fe      	b.n	8001526 <Error_Handler+0x2>

08001528 <PANTALLA_Process>:
 8001528:	e92d 41f0 	stmdb	sp!, {r4, r5, r6, r7, r8, lr}
 800152c:	b090      	sub	sp, #64	; 0x40
 800152e:	f000 fcff 	bl	8001f30 <HAL_GetTick>
 8001532:	4f4a      	ldr	r7, [pc, #296]	; (800165c <PANTALLA_Process+0x134>)
 8001534:	6038      	str	r0, [r7, #0]
 8001536:	f000 fcfb 	bl	8001f30 <HAL_GetTick>
 800153a:	683b      	ldr	r3, [r7, #0]
 800153c:	1ac0      	subs	r0, r0, r3
 800153e:	2864      	cmp	r0, #100	; 0x64
 8001540:	d95e      	bls.n	8001600 <PANTALLA_Process+0xd8>
 8001542:	4b47      	ldr	r3, [pc, #284]	; (8001660 <PANTALLA_Process+0x138>)
 8001544:	4e47      	ldr	r6, [pc, #284]	; (8001664 <PANTALLA_Process+0x13c>)
 8001546:	f893 c003 	ldrb.w	ip, [r3, #3]
 800154a:	f1bc 0f01 	cmp.w	ip, #1
 800154e:	4698      	mov	r8, r3
 8001550:	d113      	bne.n	800157a <PANTALLA_Process+0x52>
 8001552:	f106 0508 	add.w	r5, r6, #8
 8001556:	cd0f      	ldmia	r5!, {r0, r1, r2, r3}
 8001558:	466c      	mov	r4, sp
 800155a:	c40f      	stmia	r4!, {r0, r1, r2, r3}
 800155c:	cd0f      	ldmia	r5!, {r0, r1, r2, r3}
 800155e:	c40f      	stmia	r4!, {r0, r1, r2, r3}
 8001560:	cd0f      	ldmia	r5!, {r0, r1, r2, r3}
 8001562:	c40f      	stmia	r4!, {r0, r1, r2, r3}
 8001564:	e895 0007 	ldmia.w	r5, {r0, r1, r2}
 8001568:	e884 0007 	stmia.w	r4, {r0, r1, r2}
 800156c:	483e      	ldr	r0, [pc, #248]	; (8001668 <PANTALLA_Process+0x140>)
 800156e:	e896 000c 	ldmia.w	r6, {r2, r3}
 8001572:	4661      	mov	r1, ip
 8001574:	f000 f884 	bl	8001680 <PANTALLA_API_SendtoNum>
 8001578:	e002      	b.n	8001580 <PANTALLA_Process+0x58>
 800157a:	f1bc 0f00 	cmp.w	ip, #0
 800157e:	d0e8      	beq.n	8001552 <PANTALLA_Process+0x2a>
 8001580:	f898 c000 	ldrb.w	ip, [r8]
 8001584:	f1bc 0f01 	cmp.w	ip, #1
 8001588:	d112      	bne.n	80015b0 <PANTALLA_Process+0x88>
 800158a:	4d38      	ldr	r5, [pc, #224]	; (800166c <PANTALLA_Process+0x144>)
 800158c:	cd0f      	ldmia	r5!, {r0, r1, r2, r3}
 800158e:	466c      	mov	r4, sp
 8001590:	c40f      	stmia	r4!, {r0, r1, r2, r3}
 8001592:	cd0f      	ldmia	r5!, {r0, r1, r2, r3}
 8001594:	c40f      	stmia	r4!, {r0, r1, r2, r3}
 8001596:	cd0f      	ldmia	r5!, {r0, r1, r2, r3}
 8001598:	c40f      	stmia	r4!, {r0, r1, r2, r3}
 800159a:	e895 0007 	ldmia.w	r5, {r0, r1, r2}
 800159e:	e884 0007 	stmia.w	r4, {r0, r1, r2}
 80015a2:	4833      	ldr	r0, [pc, #204]	; (8001670 <PANTALLA_Process+0x148>)
 80015a4:	e896 000c 	ldmia.w	r6, {r2, r3}
 80015a8:	4661      	mov	r1, ip
 80015aa:	f000 f8f7 	bl	800179c <PANTALLA_API_SendtoImage>
 80015ae:	e005      	b.n	80015bc <PANTALLA_Process+0x94>
 80015b0:	f1bc 0f02 	cmp.w	ip, #2
 80015b4:	d0e9      	beq.n	800158a <PANTALLA_Process+0x62>
 80015b6:	f1bc 0f03 	cmp.w	ip, #3
 80015ba:	d0e6      	beq.n	800158a <PANTALLA_Process+0x62>
 80015bc:	edd8 7a02 	vldr	s15, [r8, #8]
 80015c0:	f8df 80b8 	ldr.w	r8, [pc, #184]	; 800167c <PANTALLA_Process+0x154>
 80015c4:	eefd 7ae7 	vcvt.s32.f32	s15, s15
 80015c8:	ee17 ca90 	vmov	ip, s15
 80015cc:	f1bc 0f64 	cmp.w	ip, #100	; 0x64
 80015d0:	edc8 7a00 	vstr	s15, [r8]
 80015d4:	d117      	bne.n	8001606 <PANTALLA_Process+0xde>
 80015d6:	4d25      	ldr	r5, [pc, #148]	; (800166c <PANTALLA_Process+0x144>)
 80015d8:	cd0f      	ldmia	r5!, {r0, r1, r2, r3}
 80015da:	466c      	mov	r4, sp
 80015dc:	c40f      	stmia	r4!, {r0, r1, r2, r3}
 80015de:	cd0f      	ldmia	r5!, {r0, r1, r2, r3}
 80015e0:	c40f      	stmia	r4!, {r0, r1, r2, r3}
 80015e2:	cd0f      	ldmia	r5!, {r0, r1, r2, r3}
 80015e4:	c40f      	stmia	r4!, {r0, r1, r2, r3}
 80015e6:	e895 0007 	ldmia.w	r5, {r0, r1, r2}
 80015ea:	e884 0007 	stmia.w	r4, {r0, r1, r2}
 80015ee:	4821      	ldr	r0, [pc, #132]	; (8001674 <PANTALLA_Process+0x14c>)
 80015f0:	e896 000c 	ldmia.w	r6, {r2, r3}
 80015f4:	2163      	movs	r1, #99	; 0x63
 80015f6:	f000 f867 	bl	80016c8 <PANTALLA_API_SendtoTxt>
 80015fa:	f000 fc99 	bl	8001f30 <HAL_GetTick>
 80015fe:	6038      	str	r0, [r7, #0]
 8001600:	b010      	add	sp, #64	; 0x40
 8001602:	e8bd 81f0 	ldmia.w	sp!, {r4, r5, r6, r7, r8, pc}
 8001606:	4c19      	ldr	r4, [pc, #100]	; (800166c <PANTALLA_Process+0x144>)
 8001608:	cc0f      	ldmia	r4!, {r0, r1, r2, r3}
 800160a:	466d      	mov	r5, sp
 800160c:	c50f      	stmia	r5!, {r0, r1, r2, r3}
 800160e:	cc0f      	ldmia	r4!, {r0, r1, r2, r3}
 8001610:	c50f      	stmia	r5!, {r0, r1, r2, r3}
 8001612:	cc0f      	ldmia	r4!, {r0, r1, r2, r3}
 8001614:	c50f      	stmia	r5!, {r0, r1, r2, r3}
 8001616:	e894 0007 	ldmia.w	r4, {r0, r1, r2}
 800161a:	e885 0007 	stmia.w	r5, {r0, r1, r2}
 800161e:	fa1f f18c 	uxth.w	r1, ip
 8001622:	e896 000c 	ldmia.w	r6, {r2, r3}
 8001626:	4813      	ldr	r0, [pc, #76]	; (8001674 <PANTALLA_Process+0x14c>)
 8001628:	f000 f84e 	bl	80016c8 <PANTALLA_API_SendtoTxt>
 800162c:	f1a4 0c30 	sub.w	ip, r4, #48	; 0x30
 8001630:	e8bc 000f 	ldmia.w	ip!, {r0, r1, r2, r3}
 8001634:	466d      	mov	r5, sp
 8001636:	c50f      	stmia	r5!, {r0, r1, r2, r3}
 8001638:	e8bc 000f 	ldmia.w	ip!, {r0, r1, r2, r3}
 800163c:	c50f      	stmia	r5!, {r0, r1, r2, r3}
 800163e:	e8bc 000f 	ldmia.w	ip!, {r0, r1, r2, r3}
 8001642:	c50f      	stmia	r5!, {r0, r1, r2, r3}
 8001644:	e894 0007 	ldmia.w	r4, {r0, r1, r2}
 8001648:	e885 0007 	stmia.w	r5, {r0, r1, r2}
 800164c:	480a      	ldr	r0, [pc, #40]	; (8001678 <PANTALLA_Process+0x150>)
 800164e:	e896 000c 	ldmia.w	r6, {r2, r3}
 8001652:	f8b8 1000 	ldrh.w	r1, [r8]
 8001656:	f000 f881 	bl	800175c <PANTALLA_API_SendtoPB>
 800165a:	e7ce      	b.n	80015fa <PANTALLA_Process+0xd2>
 800165c:	2000028c 	.word	0x2000028c
 8001660:	2000000c 	.word	0x2000000c
 8001664:	20000334 	.word	0x20000334
 8001668:	08004aa4 	.word	0x08004aa4
 800166c:	2000033c 	.word	0x2000033c
 8001670:	08004ab3 	.word	0x08004ab3
 8001674:	08004ac4 	.word	0x08004ac4
 8001678:	08004ace 	.word	0x08004ace
 800167c:	200000e8 	.word	0x200000e8

08001680 <PANTALLA_API_SendtoNum>:
 8001680:	b082      	sub	sp, #8
 8001682:	b500      	push	{lr}
 8001684:	b089      	sub	sp, #36	; 0x24
 8001686:	f10d 0c28 	add.w	ip, sp, #40	; 0x28
 800168a:	e88c 000c 	stmia.w	ip, {r2, r3}
 800168e:	460b      	mov	r3, r1
 8001690:	4602      	mov	r2, r0
 8001692:	490b      	ldr	r1, [pc, #44]	; (80016c0 <PANTALLA_API_SendtoNum+0x40>)
 8001694:	4668      	mov	r0, sp
 8001696:	f002 fdcb 	bl	8004230 <siprintf>
 800169a:	4669      	mov	r1, sp
 800169c:	b282      	uxth	r2, r0
 800169e:	f44f 737a 	mov.w	r3, #1000	; 0x3e8
 80016a2:	a80a      	add	r0, sp, #40	; 0x28
 80016a4:	f002 fd3c 	bl	8004120 <HAL_UART_Transmit>
 80016a8:	4906      	ldr	r1, [pc, #24]	; (80016c4 <PANTALLA_API_SendtoNum+0x44>)
 80016aa:	f640 33b8 	movw	r3, #3000	; 0xbb8
 80016ae:	2203      	movs	r2, #3
 80016b0:	a80a      	add	r0, sp, #40	; 0x28
 80016b2:	f002 fd35 	bl	8004120 <HAL_UART_Transmit>
 80016b6:	b009      	add	sp, #36	; 0x24
 80016b8:	f85d eb04 	ldr.w	lr, [sp], #4
 80016bc:	b002      	add	sp, #8
 80016be:	4770      	bx	lr
 80016c0:	08004adc 	.word	0x08004adc
 80016c4:	20000049 	.word	0x20000049

080016c8 <PANTALLA_API_SendtoTxt>:
 80016c8:	b082      	sub	sp, #8
 80016ca:	b530      	push	{r4, r5, lr}
 80016cc:	b089      	sub	sp, #36	; 0x24
 80016ce:	460d      	mov	r5, r1
 80016d0:	a90c      	add	r1, sp, #48	; 0x30
 80016d2:	e881 000c 	stmia.w	r1, {r2, r3}
 80016d6:	4604      	mov	r4, r0
 80016d8:	4601      	mov	r1, r0
 80016da:	4818      	ldr	r0, [pc, #96]	; (800173c <PANTALLA_API_SendtoTxt+0x74>)
 80016dc:	f7fe fd98 	bl	8000210 <strcmp>
 80016e0:	b9c0      	cbnz	r0, 8001714 <PANTALLA_API_SendtoTxt+0x4c>
 80016e2:	4917      	ldr	r1, [pc, #92]	; (8001740 <PANTALLA_API_SendtoTxt+0x78>)
 80016e4:	462b      	mov	r3, r5
 80016e6:	4622      	mov	r2, r4
 80016e8:	4668      	mov	r0, sp
 80016ea:	f002 fda1 	bl	8004230 <siprintf>
 80016ee:	4669      	mov	r1, sp
 80016f0:	b282      	uxth	r2, r0
 80016f2:	f44f 737a 	mov.w	r3, #1000	; 0x3e8
 80016f6:	a80c      	add	r0, sp, #48	; 0x30
 80016f8:	f002 fd12 	bl	8004120 <HAL_UART_Transmit>
 80016fc:	4911      	ldr	r1, [pc, #68]	; (8001744 <PANTALLA_API_SendtoTxt+0x7c>)
 80016fe:	f640 33b8 	movw	r3, #3000	; 0xbb8
 8001702:	2203      	movs	r2, #3
 8001704:	a80c      	add	r0, sp, #48	; 0x30
 8001706:	f002 fd0b 	bl	8004120 <HAL_UART_Transmit>
 800170a:	b009      	add	sp, #36	; 0x24
 800170c:	e8bd 4030 	ldmia.w	sp!, {r4, r5, lr}
 8001710:	b002      	add	sp, #8
 8001712:	4770      	bx	lr
 8001714:	480c      	ldr	r0, [pc, #48]	; (8001748 <PANTALLA_API_SendtoTxt+0x80>)
 8001716:	4621      	mov	r1, r4
 8001718:	f7fe fd7a 	bl	8000210 <strcmp>
 800171c:	b918      	cbnz	r0, 8001726 <PANTALLA_API_SendtoTxt+0x5e>
 800171e:	490b      	ldr	r1, [pc, #44]	; (800174c <PANTALLA_API_SendtoTxt+0x84>)
 8001720:	462b      	mov	r3, r5
 8001722:	4622      	mov	r2, r4
 8001724:	e7e0      	b.n	80016e8 <PANTALLA_API_SendtoTxt+0x20>
 8001726:	480a      	ldr	r0, [pc, #40]	; (8001750 <PANTALLA_API_SendtoTxt+0x88>)
 8001728:	4621      	mov	r1, r4
 800172a:	f7fe fd71 	bl	8000210 <strcmp>
 800172e:	462b      	mov	r3, r5
 8001730:	4622      	mov	r2, r4
 8001732:	b908      	cbnz	r0, 8001738 <PANTALLA_API_SendtoTxt+0x70>
 8001734:	4907      	ldr	r1, [pc, #28]	; (8001754 <PANTALLA_API_SendtoTxt+0x8c>)
 8001736:	e7d7      	b.n	80016e8 <PANTALLA_API_SendtoTxt+0x20>
 8001738:	4907      	ldr	r1, [pc, #28]	; (8001758 <PANTALLA_API_SendtoTxt+0x90>)
 800173a:	e7d5      	b.n	80016e8 <PANTALLA_API_SendtoTxt+0x20>
 800173c:	08004ae2 	.word	0x08004ae2
 8001740:	08004af0 	.word	0x08004af0
 8001744:	20000049 	.word	0x20000049
 8001748:	08004afa 	.word	0x08004afa
 800174c:	08004b04 	.word	0x08004b04
 8001750:	08004b0e 	.word	0x08004b0e
 8001754:	08004b1e 	.word	0x08004b1e
 8001758:	08004b28 	.word	0x08004b28

0800175c <PANTALLA_API_SendtoPB>:
 800175c:	b082      	sub	sp, #8
 800175e:	b5f0      	push	{r4, r5, r6, r7, lr}
 8001760:	b091      	sub	sp, #68	; 0x44
 8001762:	460f      	mov	r7, r1
 8001764:	ad18      	add	r5, sp, #96	; 0x60
 8001766:	a916      	add	r1, sp, #88	; 0x58
 8001768:	e881 000c 	stmia.w	r1, {r2, r3}
 800176c:	4606      	mov	r6, r0
 800176e:	cd0f      	ldmia	r5!, {r0, r1, r2, r3}
 8001770:	466c      	mov	r4, sp
 8001772:	c40f      	stmia	r4!, {r0, r1, r2, r3}
 8001774:	cd0f      	ldmia	r5!, {r0, r1, r2, r3}
 8001776:	c40f      	stmia	r4!, {r0, r1, r2, r3}
 8001778:	cd0f      	ldmia	r5!, {r0, r1, r2, r3}
 800177a:	c40f      	stmia	r4!, {r0, r1, r2, r3}
 800177c:	e895 0007 	ldmia.w	r5, {r0, r1, r2}
 8001780:	ab16      	add	r3, sp, #88	; 0x58
 8001782:	e884 0007 	stmia.w	r4, {r0, r1, r2}
 8001786:	cb0c      	ldmia	r3, {r2, r3}
 8001788:	4639      	mov	r1, r7
 800178a:	4630      	mov	r0, r6
 800178c:	f7ff ff78 	bl	8001680 <PANTALLA_API_SendtoNum>
 8001790:	b011      	add	sp, #68	; 0x44
 8001792:	e8bd 40f0 	ldmia.w	sp!, {r4, r5, r6, r7, lr}
 8001796:	b002      	add	sp, #8
 8001798:	4770      	bx	lr
	...

0800179c <PANTALLA_API_SendtoImage>:
 800179c:	b082      	sub	sp, #8
 800179e:	b570      	push	{r4, r5, r6, lr}
 80017a0:	b088      	sub	sp, #32
 80017a2:	460d      	mov	r5, r1
 80017a4:	a90c      	add	r1, sp, #48	; 0x30
 80017a6:	e881 000c 	stmia.w	r1, {r2, r3}
 80017aa:	4925      	ldr	r1, [pc, #148]	; (8001840 <PANTALLA_API_SendtoImage+0xa4>)
 80017ac:	4606      	mov	r6, r0
 80017ae:	f7fe fd2f 	bl	8000210 <strcmp>
 80017b2:	bb30      	cbnz	r0, 8001802 <PANTALLA_API_SendtoImage+0x66>
 80017b4:	2d21      	cmp	r5, #33	; 0x21
 80017b6:	d819      	bhi.n	80017ec <PANTALLA_API_SendtoImage+0x50>
 80017b8:	231c      	movs	r3, #28
 80017ba:	4922      	ldr	r1, [pc, #136]	; (8001844 <PANTALLA_API_SendtoImage+0xa8>)
 80017bc:	4632      	mov	r2, r6
 80017be:	4668      	mov	r0, sp
 80017c0:	f002 fd36 	bl	8004230 <siprintf>
 80017c4:	4604      	mov	r4, r0
 80017c6:	b2a2      	uxth	r2, r4
 80017c8:	4669      	mov	r1, sp
 80017ca:	f44f 737a 	mov.w	r3, #1000	; 0x3e8
 80017ce:	a80c      	add	r0, sp, #48	; 0x30
 80017d0:	f002 fca6 	bl	8004120 <HAL_UART_Transmit>
 80017d4:	491c      	ldr	r1, [pc, #112]	; (8001848 <PANTALLA_API_SendtoImage+0xac>)
 80017d6:	f640 33b8 	movw	r3, #3000	; 0xbb8
 80017da:	2203      	movs	r2, #3
 80017dc:	a80c      	add	r0, sp, #48	; 0x30
 80017de:	f002 fc9f 	bl	8004120 <HAL_UART_Transmit>
 80017e2:	b008      	add	sp, #32
 80017e4:	e8bd 4070 	ldmia.w	sp!, {r4, r5, r6, lr}
 80017e8:	b002      	add	sp, #8
 80017ea:	4770      	bx	lr
 80017ec:	f1a5 0322 	sub.w	r3, r5, #34	; 0x22
 80017f0:	2b20      	cmp	r3, #32
 80017f2:	d801      	bhi.n	80017f8 <PANTALLA_API_SendtoImage+0x5c>
 80017f4:	231d      	movs	r3, #29
 80017f6:	e7e0      	b.n	80017ba <PANTALLA_API_SendtoImage+0x1e>
 80017f8:	3d43      	subs	r5, #67	; 0x43
 80017fa:	2d21      	cmp	r5, #33	; 0x21
 80017fc:	d8e3      	bhi.n	80017c6 <PANTALLA_API_SendtoImage+0x2a>
 80017fe:	231b      	movs	r3, #27
 8001800:	e7db      	b.n	80017ba <PANTALLA_API_SendtoImage+0x1e>
 8001802:	4912      	ldr	r1, [pc, #72]	; (800184c <PANTALLA_API_SendtoImage+0xb0>)
 8001804:	4630      	mov	r0, r6
 8001806:	f7fe fd03 	bl	8000210 <strcmp>
 800180a:	b958      	cbnz	r0, 8001824 <PANTALLA_API_SendtoImage+0x88>
 800180c:	2d01      	cmp	r5, #1
 800180e:	d101      	bne.n	8001814 <PANTALLA_API_SendtoImage+0x78>
 8001810:	2317      	movs	r3, #23
 8001812:	e7d2      	b.n	80017ba <PANTALLA_API_SendtoImage+0x1e>
 8001814:	2d02      	cmp	r5, #2
 8001816:	d101      	bne.n	800181c <PANTALLA_API_SendtoImage+0x80>
 8001818:	2318      	movs	r3, #24
 800181a:	e7ce      	b.n	80017ba <PANTALLA_API_SendtoImage+0x1e>
 800181c:	2d03      	cmp	r5, #3
 800181e:	d1d2      	bne.n	80017c6 <PANTALLA_API_SendtoImage+0x2a>
 8001820:	2319      	movs	r3, #25
 8001822:	e7ca      	b.n	80017ba <PANTALLA_API_SendtoImage+0x1e>
 8001824:	490a      	ldr	r1, [pc, #40]	; (8001850 <PANTALLA_API_SendtoImage+0xb4>)
 8001826:	4630      	mov	r0, r6
 8001828:	f7fe fcf2 	bl	8000210 <strcmp>
 800182c:	2800      	cmp	r0, #0
 800182e:	d1ca      	bne.n	80017c6 <PANTALLA_API_SendtoImage+0x2a>
 8001830:	2d01      	cmp	r5, #1
 8001832:	d101      	bne.n	8001838 <PANTALLA_API_SendtoImage+0x9c>
 8001834:	2321      	movs	r3, #33	; 0x21
 8001836:	e7c0      	b.n	80017ba <PANTALLA_API_SendtoImage+0x1e>
 8001838:	2d00      	cmp	r5, #0
 800183a:	d1c4      	bne.n	80017c6 <PANTALLA_API_SendtoImage+0x2a>
 800183c:	2320      	movs	r3, #32
 800183e:	e7bc      	b.n	80017ba <PANTALLA_API_SendtoImage+0x1e>
 8001840:	08004b30 	.word	0x08004b30
 8001844:	08004adc 	.word	0x08004adc
 8001848:	20000049 	.word	0x20000049
 800184c:	08004ab3 	.word	0x08004ab3
 8001850:	08004b3d 	.word	0x08004b3d

08001854 <PANTALLA_HW_Init>:
 8001854:	f000 b958 	b.w	8001b08 <MX_USART6_UART_Init>

08001858 <PEDAL_Process>:
 8001858:	b538      	push	{r3, r4, r5, lr}
 800185a:	4d19      	ldr	r5, [pc, #100]	; (80018c0 <PEDAL_Process+0x68>)
 800185c:	4c19      	ldr	r4, [pc, #100]	; (80018c4 <PEDAL_Process+0x6c>)
 800185e:	782a      	ldrb	r2, [r5, #0]
 8001860:	b942      	cbnz	r2, 8001874 <PEDAL_Process+0x1c>
 8001862:	4b19      	ldr	r3, [pc, #100]	; (80018c8 <PEDAL_Process+0x70>)
 8001864:	8818      	ldrh	r0, [r3, #0]
 8001866:	6060      	str	r0, [r4, #4]
 8001868:	2841      	cmp	r0, #65	; 0x41
 800186a:	d80c      	bhi.n	8001886 <PEDAL_Process+0x2e>
 800186c:	2300      	movs	r3, #0
 800186e:	60a3      	str	r3, [r4, #8]
 8001870:	2301      	movs	r3, #1
 8001872:	702b      	strb	r3, [r5, #0]
 8001874:	edd4 7a02 	vldr	s15, [r4, #8]
 8001878:	4a14      	ldr	r2, [pc, #80]	; (80018cc <PEDAL_Process+0x74>)
 800187a:	eefc 7ae7 	vcvt.u32.f32	s15, s15
 800187e:	ee17 3a90 	vmov	r3, s15
 8001882:	7013      	strb	r3, [r2, #0]
 8001884:	bd38      	pop	{r3, r4, r5, pc}
 8001886:	f5b0 6f4a 	cmp.w	r0, #3232	; 0xca0
 800188a:	d301      	bcc.n	8001890 <PEDAL_Process+0x38>
 800188c:	4b10      	ldr	r3, [pc, #64]	; (80018d0 <PEDAL_Process+0x78>)
 800188e:	e7ee      	b.n	800186e <PEDAL_Process+0x16>
 8001890:	f7fe fe60 	bl	8000554 <__aeabi_ui2d>
 8001894:	4b0f      	ldr	r3, [pc, #60]	; (80018d4 <PEDAL_Process+0x7c>)
 8001896:	2200      	movs	r2, #0
 8001898:	f7fe fd1e 	bl	80002d8 <__aeabi_dsub>
 800189c:	a306      	add	r3, pc, #24	; (adr r3, 80018b8 <PEDAL_Process+0x60>)
 800189e:	e9d3 2300 	ldrd	r2, r3, [r3]
 80018a2:	f7fe fffb 	bl	800089c <__aeabi_ddiv>
 80018a6:	4b0c      	ldr	r3, [pc, #48]	; (80018d8 <PEDAL_Process+0x80>)
 80018a8:	2200      	movs	r2, #0
 80018aa:	f7fe fecd 	bl	8000648 <__aeabi_dmul>
 80018ae:	f7ff f8dd 	bl	8000a6c <__aeabi_d2f>
 80018b2:	60a0      	str	r0, [r4, #8]
 80018b4:	e7dc      	b.n	8001870 <PEDAL_Process+0x18>
 80018b6:	bf00      	nop
 80018b8:	00000000 	.word	0x00000000
 80018bc:	40a8ba00 	.word	0x40a8ba00
 80018c0:	2000004c 	.word	0x2000004c
 80018c4:	2000000c 	.word	0x2000000c
 80018c8:	20000290 	.word	0x20000290
 80018cc:	20000008 	.word	0x20000008
 80018d0:	42c80000 	.word	0x42c80000
 80018d4:	40508000 	.word	0x40508000
 80018d8:	40590000 	.word	0x40590000

080018dc <PEDAL_HW_Init>:
 80018dc:	b508      	push	{r3, lr}
 80018de:	f7ff fcf5 	bl	80012cc <MX_DMA_Init>
 80018e2:	f7ff fa8f 	bl	8000e04 <MX_ADC1_Init>
 80018e6:	f000 f881 	bl	80019ec <MX_TIM3_Init>
 80018ea:	4905      	ldr	r1, [pc, #20]	; (8001900 <PEDAL_HW_Init+0x24>)
 80018ec:	4805      	ldr	r0, [pc, #20]	; (8001904 <PEDAL_HW_Init+0x28>)
 80018ee:	220a      	movs	r2, #10
 80018f0:	f000 fbde 	bl	80020b0 <HAL_ADC_Start_DMA>
 80018f4:	e8bd 4008 	ldmia.w	sp!, {r3, lr}
 80018f8:	4803      	ldr	r0, [pc, #12]	; (8001908 <PEDAL_HW_Init+0x2c>)
 80018fa:	f001 bf47 	b.w	800378c <HAL_TIM_Base_Start>
 80018fe:	bf00      	nop
 8001900:	20000290 	.word	0x20000290
 8001904:	2000019c 	.word	0x2000019c
 8001908:	200002a4 	.word	0x200002a4

0800190c <HAL_ADC_ConvCpltCallback>:
 800190c:	b510      	push	{r4, lr}
 800190e:	4604      	mov	r4, r0
 8001910:	2002      	movs	r0, #2
 8001912:	f000 fa2d 	bl	8001d70 <BSP_LED_Toggle>
 8001916:	220a      	movs	r2, #10
 8001918:	4903      	ldr	r1, [pc, #12]	; (8001928 <HAL_ADC_ConvCpltCallback+0x1c>)
 800191a:	4620      	mov	r0, r4
 800191c:	f000 fbc8 	bl	80020b0 <HAL_ADC_Start_DMA>
 8001920:	4b02      	ldr	r3, [pc, #8]	; (800192c <HAL_ADC_ConvCpltCallback+0x20>)
 8001922:	2200      	movs	r2, #0
 8001924:	701a      	strb	r2, [r3, #0]
 8001926:	bd10      	pop	{r4, pc}
 8001928:	20000290 	.word	0x20000290
 800192c:	2000004c 	.word	0x2000004c

08001930 <HAL_MspInit>:
 8001930:	b082      	sub	sp, #8
 8001932:	4b0c      	ldr	r3, [pc, #48]	; (8001964 <HAL_MspInit+0x34>)
 8001934:	2100      	movs	r1, #0
 8001936:	9100      	str	r1, [sp, #0]
 8001938:	6c5a      	ldr	r2, [r3, #68]	; 0x44
 800193a:	f442 4280 	orr.w	r2, r2, #16384	; 0x4000
 800193e:	645a      	str	r2, [r3, #68]	; 0x44
 8001940:	6c5a      	ldr	r2, [r3, #68]	; 0x44
 8001942:	f402 4280 	and.w	r2, r2, #16384	; 0x4000
 8001946:	9200      	str	r2, [sp, #0]
 8001948:	9a00      	ldr	r2, [sp, #0]
 800194a:	9101      	str	r1, [sp, #4]
 800194c:	6c1a      	ldr	r2, [r3, #64]	; 0x40
 800194e:	f042 5280 	orr.w	r2, r2, #268435456	; 0x10000000
 8001952:	641a      	str	r2, [r3, #64]	; 0x40
 8001954:	6c1b      	ldr	r3, [r3, #64]	; 0x40
 8001956:	f003 5380 	and.w	r3, r3, #268435456	; 0x10000000
 800195a:	9301      	str	r3, [sp, #4]
 800195c:	9b01      	ldr	r3, [sp, #4]
 800195e:	b002      	add	sp, #8
 8001960:	4770      	bx	lr
 8001962:	bf00      	nop
 8001964:	40023800 	.word	0x40023800

08001968 <NMI_Handler>:
 8001968:	e7fe      	b.n	8001968 <NMI_Handler>

0800196a <HardFault_Handler>:
 800196a:	e7fe      	b.n	800196a <HardFault_Handler>

0800196c <MemManage_Handler>:
 800196c:	e7fe      	b.n	800196c <MemManage_Handler>

0800196e <BusFault_Handler>:
 800196e:	e7fe      	b.n	800196e <BusFault_Handler>

08001970 <UsageFault_Handler>:
 8001970:	e7fe      	b.n	8001970 <UsageFault_Handler>

08001972 <SVC_Handler>:
 8001972:	4770      	bx	lr

08001974 <DebugMon_Handler>:
 8001974:	4770      	bx	lr

08001976 <PendSV_Handler>:
 8001976:	4770      	bx	lr

08001978 <SysTick_Handler>:
 8001978:	f000 bace 	b.w	8001f18 <HAL_IncTick>

0800197c <ADC_IRQHandler>:
 800197c:	4801      	ldr	r0, [pc, #4]	; (8001984 <ADC_IRQHandler+0x8>)
 800197e:	f000 bc49 	b.w	8002214 <HAL_ADC_IRQHandler>
 8001982:	bf00      	nop
 8001984:	2000019c 	.word	0x2000019c

08001988 <TIM7_IRQHandler>:
 8001988:	4801      	ldr	r0, [pc, #4]	; (8001990 <TIM7_IRQHandler+0x8>)
 800198a:	f001 bf74 	b.w	8003876 <HAL_TIM_IRQHandler>
 800198e:	bf00      	nop
 8001990:	200002ec 	.word	0x200002ec

08001994 <DMA2_Stream0_IRQHandler>:
 8001994:	4801      	ldr	r0, [pc, #4]	; (800199c <DMA2_Stream0_IRQHandler+0x8>)
 8001996:	f001 b9fb 	b.w	8002d90 <HAL_DMA_IRQHandler>
 800199a:	bf00      	nop
 800199c:	200001e4 	.word	0x200001e4

080019a0 <CAN2_RX0_IRQHandler>:
 80019a0:	4801      	ldr	r0, [pc, #4]	; (80019a8 <CAN2_RX0_IRQHandler+0x8>)
 80019a2:	f000 bfbf 	b.w	8002924 <HAL_CAN_IRQHandler>
 80019a6:	bf00      	nop
 80019a8:	20000244 	.word	0x20000244

080019ac <_sbrk>:
 80019ac:	4b0b      	ldr	r3, [pc, #44]	; (80019dc <_sbrk+0x30>)
 80019ae:	6819      	ldr	r1, [r3, #0]
 80019b0:	b510      	push	{r4, lr}
 80019b2:	4602      	mov	r2, r0
 80019b4:	b909      	cbnz	r1, 80019ba <_sbrk+0xe>
 80019b6:	490a      	ldr	r1, [pc, #40]	; (80019e0 <_sbrk+0x34>)
 80019b8:	6019      	str	r1, [r3, #0]
 80019ba:	6818      	ldr	r0, [r3, #0]
 80019bc:	4909      	ldr	r1, [pc, #36]	; (80019e4 <_sbrk+0x38>)
 80019be:	4c0a      	ldr	r4, [pc, #40]	; (80019e8 <_sbrk+0x3c>)
 80019c0:	4402      	add	r2, r0
 80019c2:	1b09      	subs	r1, r1, r4
 80019c4:	428a      	cmp	r2, r1
 80019c6:	d906      	bls.n	80019d6 <_sbrk+0x2a>
 80019c8:	f002 fc00 	bl	80041cc <__errno>
 80019cc:	230c      	movs	r3, #12
 80019ce:	6003      	str	r3, [r0, #0]
 80019d0:	f04f 30ff 	mov.w	r0, #4294967295
 80019d4:	bd10      	pop	{r4, pc}
 80019d6:	601a      	str	r2, [r3, #0]
 80019d8:	e7fc      	b.n	80019d4 <_sbrk+0x28>
 80019da:	bf00      	nop
 80019dc:	200000ec 	.word	0x200000ec
 80019e0:	20000390 	.word	0x20000390
 80019e4:	20020000 	.word	0x20020000
 80019e8:	00000400 	.word	0x00000400

080019ec <MX_TIM3_Init>:
 80019ec:	b57f      	push	{r0, r1, r2, r3, r4, r5, r6, lr}
 80019ee:	2210      	movs	r2, #16
 80019f0:	2100      	movs	r1, #0
 80019f2:	a802      	add	r0, sp, #8
 80019f4:	f002 fc14 	bl	8004220 <memset>
 80019f8:	4815      	ldr	r0, [pc, #84]	; (8001a50 <MX_TIM3_Init+0x64>)
 80019fa:	4916      	ldr	r1, [pc, #88]	; (8001a54 <MX_TIM3_Init+0x68>)
 80019fc:	f641 723f 	movw	r2, #7999	; 0x1f3f
 8001a00:	2300      	movs	r3, #0
 8001a02:	e9c0 1200 	strd	r1, r2, [r0]
 8001a06:	2263      	movs	r2, #99	; 0x63
 8001a08:	e9cd 3300 	strd	r3, r3, [sp]
 8001a0c:	e9c0 2303 	strd	r2, r3, [r0, #12]
 8001a10:	6083      	str	r3, [r0, #8]
 8001a12:	6183      	str	r3, [r0, #24]
 8001a14:	f002 f838 	bl	8003a88 <HAL_TIM_Base_Init>
 8001a18:	b108      	cbz	r0, 8001a1e <MX_TIM3_Init+0x32>
 8001a1a:	f7ff fd83 	bl	8001524 <Error_Handler>
 8001a1e:	f44f 5380 	mov.w	r3, #4096	; 0x1000
 8001a22:	480b      	ldr	r0, [pc, #44]	; (8001a50 <MX_TIM3_Init+0x64>)
 8001a24:	9302      	str	r3, [sp, #8]
 8001a26:	a902      	add	r1, sp, #8
 8001a28:	f002 f924 	bl	8003c74 <HAL_TIM_ConfigClockSource>
 8001a2c:	b108      	cbz	r0, 8001a32 <MX_TIM3_Init+0x46>
 8001a2e:	f7ff fd79 	bl	8001524 <Error_Handler>
 8001a32:	2220      	movs	r2, #32
 8001a34:	2380      	movs	r3, #128	; 0x80
 8001a36:	4806      	ldr	r0, [pc, #24]	; (8001a50 <MX_TIM3_Init+0x64>)
 8001a38:	4669      	mov	r1, sp
 8001a3a:	e9cd 2300 	strd	r2, r3, [sp]
 8001a3e:	f002 fa6d 	bl	8003f1c <HAL_TIMEx_MasterConfigSynchronization>
 8001a42:	b108      	cbz	r0, 8001a48 <MX_TIM3_Init+0x5c>
 8001a44:	f7ff fd6e 	bl	8001524 <Error_Handler>
 8001a48:	b007      	add	sp, #28
 8001a4a:	f85d fb04 	ldr.w	pc, [sp], #4
 8001a4e:	bf00      	nop
 8001a50:	200002a4 	.word	0x200002a4
 8001a54:	40000400 	.word	0x40000400

08001a58 <MX_TIM7_Init>:
 8001a58:	b513      	push	{r0, r1, r4, lr}
 8001a5a:	4a0f      	ldr	r2, [pc, #60]	; (8001a98 <MX_TIM7_Init+0x40>)
 8001a5c:	480f      	ldr	r0, [pc, #60]	; (8001a9c <MX_TIM7_Init+0x44>)
 8001a5e:	f641 733f 	movw	r3, #7999	; 0x1f3f
 8001a62:	2400      	movs	r4, #0
 8001a64:	e9c0 2300 	strd	r2, r3, [r0]
 8001a68:	f242 730f 	movw	r3, #9999	; 0x270f
 8001a6c:	e9cd 4400 	strd	r4, r4, [sp]
 8001a70:	6084      	str	r4, [r0, #8]
 8001a72:	60c3      	str	r3, [r0, #12]
 8001a74:	6184      	str	r4, [r0, #24]
 8001a76:	f002 f807 	bl	8003a88 <HAL_TIM_Base_Init>
 8001a7a:	b108      	cbz	r0, 8001a80 <MX_TIM7_Init+0x28>
 8001a7c:	f7ff fd52 	bl	8001524 <Error_Handler>
 8001a80:	4806      	ldr	r0, [pc, #24]	; (8001a9c <MX_TIM7_Init+0x44>)
 8001a82:	4669      	mov	r1, sp
 8001a84:	e9cd 4400 	strd	r4, r4, [sp]
 8001a88:	f002 fa48 	bl	8003f1c <HAL_TIMEx_MasterConfigSynchronization>
 8001a8c:	b108      	cbz	r0, 8001a92 <MX_TIM7_Init+0x3a>
 8001a8e:	f7ff fd49 	bl	8001524 <Error_Handler>
 8001a92:	b002      	add	sp, #8
 8001a94:	bd10      	pop	{r4, pc}
 8001a96:	bf00      	nop
 8001a98:	40001400 	.word	0x40001400
 8001a9c:	200002ec 	.word	0x200002ec

08001aa0 <HAL_TIM_Base_MspInit>:
 8001aa0:	b507      	push	{r0, r1, r2, lr}
 8001aa2:	6803      	ldr	r3, [r0, #0]
 8001aa4:	4a15      	ldr	r2, [pc, #84]	; (8001afc <HAL_TIM_Base_MspInit+0x5c>)
 8001aa6:	4293      	cmp	r3, r2
 8001aa8:	d10e      	bne.n	8001ac8 <HAL_TIM_Base_MspInit+0x28>
 8001aaa:	2300      	movs	r3, #0
 8001aac:	9300      	str	r3, [sp, #0]
 8001aae:	4b14      	ldr	r3, [pc, #80]	; (8001b00 <HAL_TIM_Base_MspInit+0x60>)
 8001ab0:	6c1a      	ldr	r2, [r3, #64]	; 0x40
 8001ab2:	f042 0202 	orr.w	r2, r2, #2
 8001ab6:	641a      	str	r2, [r3, #64]	; 0x40
 8001ab8:	6c1b      	ldr	r3, [r3, #64]	; 0x40
 8001aba:	f003 0302 	and.w	r3, r3, #2
 8001abe:	9300      	str	r3, [sp, #0]
 8001ac0:	9b00      	ldr	r3, [sp, #0]
 8001ac2:	b003      	add	sp, #12
 8001ac4:	f85d fb04 	ldr.w	pc, [sp], #4
 8001ac8:	4a0e      	ldr	r2, [pc, #56]	; (8001b04 <HAL_TIM_Base_MspInit+0x64>)
 8001aca:	4293      	cmp	r3, r2
 8001acc:	d1f9      	bne.n	8001ac2 <HAL_TIM_Base_MspInit+0x22>
 8001ace:	2200      	movs	r2, #0
 8001ad0:	4b0b      	ldr	r3, [pc, #44]	; (8001b00 <HAL_TIM_Base_MspInit+0x60>)
 8001ad2:	9201      	str	r2, [sp, #4]
 8001ad4:	6c19      	ldr	r1, [r3, #64]	; 0x40
 8001ad6:	f041 0120 	orr.w	r1, r1, #32
 8001ada:	6419      	str	r1, [r3, #64]	; 0x40
 8001adc:	6c1b      	ldr	r3, [r3, #64]	; 0x40
 8001ade:	f003 0320 	and.w	r3, r3, #32
 8001ae2:	9301      	str	r3, [sp, #4]
 8001ae4:	4611      	mov	r1, r2
 8001ae6:	2037      	movs	r0, #55	; 0x37
 8001ae8:	9b01      	ldr	r3, [sp, #4]
 8001aea:	f001 f82b 	bl	8002b44 <HAL_NVIC_SetPriority>
 8001aee:	2037      	movs	r0, #55	; 0x37
 8001af0:	b003      	add	sp, #12
 8001af2:	f85d eb04 	ldr.w	lr, [sp], #4
 8001af6:	f001 b857 	b.w	8002ba8 <HAL_NVIC_EnableIRQ>
 8001afa:	bf00      	nop
 8001afc:	40000400 	.word	0x40000400
 8001b00:	40023800 	.word	0x40023800
 8001b04:	40001400 	.word	0x40001400

08001b08 <MX_USART6_UART_Init>:
 8001b08:	480b      	ldr	r0, [pc, #44]	; (8001b38 <MX_USART6_UART_Init+0x30>)
 8001b0a:	4a0c      	ldr	r2, [pc, #48]	; (8001b3c <MX_USART6_UART_Init+0x34>)
 8001b0c:	b508      	push	{r3, lr}
 8001b0e:	f44f 33e1 	mov.w	r3, #115200	; 0x1c200
 8001b12:	e9c0 2300 	strd	r2, r3, [r0]
 8001b16:	2300      	movs	r3, #0
 8001b18:	220c      	movs	r2, #12
 8001b1a:	e9c0 3302 	strd	r3, r3, [r0, #8]
 8001b1e:	e9c0 2305 	strd	r2, r3, [r0, #20]
 8001b22:	6103      	str	r3, [r0, #16]
 8001b24:	61c3      	str	r3, [r0, #28]
 8001b26:	f002 facd 	bl	80040c4 <HAL_UART_Init>
 8001b2a:	b118      	cbz	r0, 8001b34 <MX_USART6_UART_Init+0x2c>
 8001b2c:	e8bd 4008 	ldmia.w	sp!, {r3, lr}
 8001b30:	f7ff bcf8 	b.w	8001524 <Error_Handler>
 8001b34:	bd08      	pop	{r3, pc}
 8001b36:	bf00      	nop
 8001b38:	20000334 	.word	0x20000334
 8001b3c:	40011400 	.word	0x40011400

08001b40 <HAL_UART_MspInit>:
 8001b40:	b510      	push	{r4, lr}
 8001b42:	4604      	mov	r4, r0
 8001b44:	b088      	sub	sp, #32
 8001b46:	2214      	movs	r2, #20
 8001b48:	2100      	movs	r1, #0
 8001b4a:	a803      	add	r0, sp, #12
 8001b4c:	f002 fb68 	bl	8004220 <memset>
 8001b50:	6822      	ldr	r2, [r4, #0]
 8001b52:	4b14      	ldr	r3, [pc, #80]	; (8001ba4 <HAL_UART_MspInit+0x64>)
 8001b54:	429a      	cmp	r2, r3
 8001b56:	d123      	bne.n	8001ba0 <HAL_UART_MspInit+0x60>
 8001b58:	f503 3392 	add.w	r3, r3, #74752	; 0x12400
 8001b5c:	2200      	movs	r2, #0
 8001b5e:	9201      	str	r2, [sp, #4]
 8001b60:	6c59      	ldr	r1, [r3, #68]	; 0x44
 8001b62:	f041 0120 	orr.w	r1, r1, #32
 8001b66:	6459      	str	r1, [r3, #68]	; 0x44
 8001b68:	6c59      	ldr	r1, [r3, #68]	; 0x44
 8001b6a:	f001 0120 	and.w	r1, r1, #32
 8001b6e:	9101      	str	r1, [sp, #4]
 8001b70:	9901      	ldr	r1, [sp, #4]
 8001b72:	9202      	str	r2, [sp, #8]
 8001b74:	6b19      	ldr	r1, [r3, #48]	; 0x30
 8001b76:	f041 0104 	orr.w	r1, r1, #4
 8001b7a:	6319      	str	r1, [r3, #48]	; 0x30
 8001b7c:	6b1b      	ldr	r3, [r3, #48]	; 0x30
 8001b7e:	9205      	str	r2, [sp, #20]
 8001b80:	f003 0304 	and.w	r3, r3, #4
 8001b84:	9302      	str	r3, [sp, #8]
 8001b86:	21c0      	movs	r1, #192	; 0xc0
 8001b88:	9b02      	ldr	r3, [sp, #8]
 8001b8a:	2302      	movs	r3, #2
 8001b8c:	e9cd 1303 	strd	r1, r3, [sp, #12]
 8001b90:	2003      	movs	r0, #3
 8001b92:	2308      	movs	r3, #8
 8001b94:	e9cd 0306 	strd	r0, r3, [sp, #24]
 8001b98:	a903      	add	r1, sp, #12
 8001b9a:	4803      	ldr	r0, [pc, #12]	; (8001ba8 <HAL_UART_MspInit+0x68>)
 8001b9c:	f001 f9b6 	bl	8002f0c <HAL_GPIO_Init>
 8001ba0:	b008      	add	sp, #32
 8001ba2:	bd10      	pop	{r4, pc}
 8001ba4:	40011400 	.word	0x40011400
 8001ba8:	40020800 	.word	0x40020800

08001bac <Reset_Handler>:
 8001bac:	f8df d034 	ldr.w	sp, [pc, #52]	; 8001be4 <LoopFillZerobss+0x12>
 8001bb0:	480d      	ldr	r0, [pc, #52]	; (8001be8 <LoopFillZerobss+0x16>)
 8001bb2:	490e      	ldr	r1, [pc, #56]	; (8001bec <LoopFillZerobss+0x1a>)
 8001bb4:	4a0e      	ldr	r2, [pc, #56]	; (8001bf0 <LoopFillZerobss+0x1e>)
 8001bb6:	2300      	movs	r3, #0
 8001bb8:	e002      	b.n	8001bc0 <LoopCopyDataInit>

08001bba <CopyDataInit>:
 8001bba:	58d4      	ldr	r4, [r2, r3]
 8001bbc:	50c4      	str	r4, [r0, r3]
 8001bbe:	3304      	adds	r3, #4

08001bc0 <LoopCopyDataInit>:
 8001bc0:	18c4      	adds	r4, r0, r3
 8001bc2:	428c      	cmp	r4, r1
 8001bc4:	d3f9      	bcc.n	8001bba <CopyDataInit>
 8001bc6:	4a0b      	ldr	r2, [pc, #44]	; (8001bf4 <LoopFillZerobss+0x22>)
 8001bc8:	4c0b      	ldr	r4, [pc, #44]	; (8001bf8 <LoopFillZerobss+0x26>)
 8001bca:	2300      	movs	r3, #0
 8001bcc:	e001      	b.n	8001bd2 <LoopFillZerobss>

08001bce <FillZerobss>:
 8001bce:	6013      	str	r3, [r2, #0]
 8001bd0:	3204      	adds	r2, #4

08001bd2 <LoopFillZerobss>:
 8001bd2:	42a2      	cmp	r2, r4
 8001bd4:	d3fb      	bcc.n	8001bce <FillZerobss>
 8001bd6:	f000 f957 	bl	8001e88 <SystemInit>
 8001bda:	f002 fafd 	bl	80041d8 <__libc_init_array>
 8001bde:	f7ff fc97 	bl	8001510 <main>
 8001be2:	4770      	bx	lr
 8001be4:	20020000 	.word	0x20020000
 8001be8:	20000000 	.word	0x20000000
 8001bec:	200000c0 	.word	0x200000c0
 8001bf0:	08004bc0 	.word	0x08004bc0
 8001bf4:	200000c0 	.word	0x200000c0
 8001bf8:	2000038c 	.word	0x2000038c

08001bfc <CAN1_RX0_IRQHandler>:
 8001bfc:	e7fe      	b.n	8001bfc <CAN1_RX0_IRQHandler>
	...

08001c00 <BSP_BUZZER_Init>:
 8001c00:	b570      	push	{r4, r5, r6, lr}
 8001c02:	2400      	movs	r4, #0
 8001c04:	b090      	sub	sp, #64	; 0x40
 8001c06:	4d24      	ldr	r5, [pc, #144]	; (8001c98 <BSP_BUZZER_Init+0x98>)
 8001c08:	4e24      	ldr	r6, [pc, #144]	; (8001c9c <BSP_BUZZER_Init+0x9c>)
 8001c0a:	4621      	mov	r1, r4
 8001c0c:	221c      	movs	r2, #28
 8001c0e:	a809      	add	r0, sp, #36	; 0x24
 8001c10:	e9cd 4402 	strd	r4, r4, [sp, #8]
 8001c14:	f002 fb04 	bl	8004220 <memset>
 8001c18:	f04f 4280 	mov.w	r2, #1073741824	; 0x40000000
 8001c1c:	234f      	movs	r3, #79	; 0x4f
 8001c1e:	e9c5 2300 	strd	r2, r3, [r5]
 8001c22:	23f9      	movs	r3, #249	; 0xf9
 8001c24:	e9c5 3403 	strd	r3, r4, [r5, #12]
 8001c28:	9400      	str	r4, [sp, #0]
 8001c2a:	60ac      	str	r4, [r5, #8]
 8001c2c:	61ac      	str	r4, [r5, #24]
 8001c2e:	6c33      	ldr	r3, [r6, #64]	; 0x40
 8001c30:	f043 0301 	orr.w	r3, r3, #1
 8001c34:	6433      	str	r3, [r6, #64]	; 0x40
 8001c36:	6c33      	ldr	r3, [r6, #64]	; 0x40
 8001c38:	f003 0301 	and.w	r3, r3, #1
 8001c3c:	9300      	str	r3, [sp, #0]
 8001c3e:	4628      	mov	r0, r5
 8001c40:	9b00      	ldr	r3, [sp, #0]
 8001c42:	f001 ff4d 	bl	8003ae0 <HAL_TIM_PWM_Init>
 8001c46:	a902      	add	r1, sp, #8
 8001c48:	4628      	mov	r0, r5
 8001c4a:	e9cd 4402 	strd	r4, r4, [sp, #8]
 8001c4e:	f002 f965 	bl	8003f1c <HAL_TIMEx_MasterConfigSynchronization>
 8001c52:	2360      	movs	r3, #96	; 0x60
 8001c54:	2208      	movs	r2, #8
 8001c56:	a909      	add	r1, sp, #36	; 0x24
 8001c58:	4628      	mov	r0, r5
 8001c5a:	e9cd 3409 	strd	r3, r4, [sp, #36]	; 0x24
 8001c5e:	940b      	str	r4, [sp, #44]	; 0x2c
 8001c60:	940d      	str	r4, [sp, #52]	; 0x34
 8001c62:	f001 ff9f 	bl	8003ba4 <HAL_TIM_PWM_ConfigChannel>
 8001c66:	9401      	str	r4, [sp, #4]
 8001c68:	6b33      	ldr	r3, [r6, #48]	; 0x30
 8001c6a:	480d      	ldr	r0, [pc, #52]	; (8001ca0 <BSP_BUZZER_Init+0xa0>)
 8001c6c:	f043 0301 	orr.w	r3, r3, #1
 8001c70:	6333      	str	r3, [r6, #48]	; 0x30
 8001c72:	6b33      	ldr	r3, [r6, #48]	; 0x30
 8001c74:	f003 0301 	and.w	r3, r3, #1
 8001c78:	9301      	str	r3, [sp, #4]
 8001c7a:	9b01      	ldr	r3, [sp, #4]
 8001c7c:	2104      	movs	r1, #4
 8001c7e:	2302      	movs	r3, #2
 8001c80:	e9cd 1304 	strd	r1, r3, [sp, #16]
 8001c84:	2301      	movs	r3, #1
 8001c86:	a904      	add	r1, sp, #16
 8001c88:	e9cd 4406 	strd	r4, r4, [sp, #24]
 8001c8c:	9308      	str	r3, [sp, #32]
 8001c8e:	f001 f93d 	bl	8002f0c <HAL_GPIO_Init>
 8001c92:	4620      	mov	r0, r4
 8001c94:	b010      	add	sp, #64	; 0x40
 8001c96:	bd70      	pop	{r4, r5, r6, pc}
 8001c98:	200000f0 	.word	0x200000f0
 8001c9c:	40023800 	.word	0x40023800
 8001ca0:	40020000 	.word	0x40020000

08001ca4 <BSP_BUZZER_On>:
 8001ca4:	b508      	push	{r3, lr}
 8001ca6:	f04f 4380 	mov.w	r3, #1073741824	; 0x40000000
 8001caa:	227d      	movs	r2, #125	; 0x7d
 8001cac:	63da      	str	r2, [r3, #60]	; 0x3c
 8001cae:	2108      	movs	r1, #8
 8001cb0:	4802      	ldr	r0, [pc, #8]	; (8001cbc <BSP_BUZZER_On+0x18>)
 8001cb2:	f002 f8ef 	bl	8003e94 <HAL_TIM_PWM_Start>
 8001cb6:	2000      	movs	r0, #0
 8001cb8:	bd08      	pop	{r3, pc}
 8001cba:	bf00      	nop
 8001cbc:	200000f0 	.word	0x200000f0

08001cc0 <BSP_BUZZER_Off>:
 8001cc0:	b508      	push	{r3, lr}
 8001cc2:	2108      	movs	r1, #8
 8001cc4:	4802      	ldr	r0, [pc, #8]	; (8001cd0 <BSP_BUZZER_Off+0x10>)
 8001cc6:	f002 f927 	bl	8003f18 <HAL_TIM_PWM_Stop>
 8001cca:	2000      	movs	r0, #0
 8001ccc:	bd08      	pop	{r3, pc}
 8001cce:	bf00      	nop
 8001cd0:	200000f0 	.word	0x200000f0

08001cd4 <BSP_LED_Init>:
 8001cd4:	b570      	push	{r4, r5, r6, lr}
 8001cd6:	b088      	sub	sp, #32
 8001cd8:	2400      	movs	r4, #0
 8001cda:	4b12      	ldr	r3, [pc, #72]	; (8001d24 <BSP_LED_Init+0x50>)
 8001cdc:	9402      	str	r4, [sp, #8]
 8001cde:	9407      	str	r4, [sp, #28]
 8001ce0:	6b1a      	ldr	r2, [r3, #48]	; 0x30
 8001ce2:	f042 0208 	orr.w	r2, r2, #8
 8001ce6:	631a      	str	r2, [r3, #48]	; 0x30
 8001ce8:	6b1b      	ldr	r3, [r3, #48]	; 0x30
 8001cea:	f003 0308 	and.w	r3, r3, #8
 8001cee:	9302      	str	r3, [sp, #8]
 8001cf0:	9b02      	ldr	r3, [sp, #8]
 8001cf2:	4b0d      	ldr	r3, [pc, #52]	; (8001d28 <BSP_LED_Init+0x54>)
 8001cf4:	f833 5010 	ldrh.w	r5, [r3, r0, lsl #1]
 8001cf8:	9503      	str	r5, [sp, #12]
 8001cfa:	2302      	movs	r3, #2
 8001cfc:	9306      	str	r3, [sp, #24]
 8001cfe:	4b0b      	ldr	r3, [pc, #44]	; (8001d2c <BSP_LED_Init+0x58>)
 8001d00:	2601      	movs	r6, #1
 8001d02:	f853 0020 	ldr.w	r0, [r3, r0, lsl #2]
 8001d06:	9001      	str	r0, [sp, #4]
 8001d08:	a903      	add	r1, sp, #12
 8001d0a:	e9cd 6404 	strd	r6, r4, [sp, #16]
 8001d0e:	f001 f8fd 	bl	8002f0c <HAL_GPIO_Init>
 8001d12:	9801      	ldr	r0, [sp, #4]
 8001d14:	4632      	mov	r2, r6
 8001d16:	4629      	mov	r1, r5
 8001d18:	f001 f9d2 	bl	80030c0 <HAL_GPIO_WritePin>
 8001d1c:	4620      	mov	r0, r4
 8001d1e:	b008      	add	sp, #32
 8001d20:	bd70      	pop	{r4, r5, r6, pc}
 8001d22:	bf00      	nop
 8001d24:	40023800 	.word	0x40023800
 8001d28:	08004b4a 	.word	0x08004b4a
 8001d2c:	08004b50 	.word	0x08004b50

08001d30 <BSP_LED_On>:
 8001d30:	b508      	push	{r3, lr}
 8001d32:	4b05      	ldr	r3, [pc, #20]	; (8001d48 <BSP_LED_On+0x18>)
 8001d34:	f833 1010 	ldrh.w	r1, [r3, r0, lsl #1]
 8001d38:	4b04      	ldr	r3, [pc, #16]	; (8001d4c <BSP_LED_On+0x1c>)
 8001d3a:	2200      	movs	r2, #0
 8001d3c:	f853 0020 	ldr.w	r0, [r3, r0, lsl #2]
 8001d40:	f001 f9be 	bl	80030c0 <HAL_GPIO_WritePin>
 8001d44:	2000      	movs	r0, #0
 8001d46:	bd08      	pop	{r3, pc}
 8001d48:	08004b4a 	.word	0x08004b4a
 8001d4c:	08004b50 	.word	0x08004b50

08001d50 <BSP_LED_Off>:
 8001d50:	b508      	push	{r3, lr}
 8001d52:	4b05      	ldr	r3, [pc, #20]	; (8001d68 <BSP_LED_Off+0x18>)
 8001d54:	f833 1010 	ldrh.w	r1, [r3, r0, lsl #1]
 8001d58:	4b04      	ldr	r3, [pc, #16]	; (8001d6c <BSP_LED_Off+0x1c>)
 8001d5a:	2201      	movs	r2, #1
 8001d5c:	f853 0020 	ldr.w	r0, [r3, r0, lsl #2]
 8001d60:	f001 f9ae 	bl	80030c0 <HAL_GPIO_WritePin>
 8001d64:	2000      	movs	r0, #0
 8001d66:	bd08      	pop	{r3, pc}
 8001d68:	08004b4a 	.word	0x08004b4a
 8001d6c:	08004b50 	.word	0x08004b50

08001d70 <BSP_LED_Toggle>:
 8001d70:	b508      	push	{r3, lr}
 8001d72:	4b05      	ldr	r3, [pc, #20]	; (8001d88 <BSP_LED_Toggle+0x18>)
 8001d74:	f833 1010 	ldrh.w	r1, [r3, r0, lsl #1]
 8001d78:	4b04      	ldr	r3, [pc, #16]	; (8001d8c <BSP_LED_Toggle+0x1c>)
 8001d7a:	f853 0020 	ldr.w	r0, [r3, r0, lsl #2]
 8001d7e:	f001 f9a4 	bl	80030ca <HAL_GPIO_TogglePin>
 8001d82:	2000      	movs	r0, #0
 8001d84:	bd08      	pop	{r3, pc}
 8001d86:	bf00      	nop
 8001d88:	08004b4a 	.word	0x08004b4a
 8001d8c:	08004b50 	.word	0x08004b50

08001d90 <CAN_API_Init>:
 8001d90:	b410      	push	{r4}
 8001d92:	9c01      	ldr	r4, [sp, #4]
 8001d94:	7142      	strb	r2, [r0, #5]
 8001d96:	6144      	str	r4, [r0, #20]
 8001d98:	2200      	movs	r2, #0
 8001d9a:	9c02      	ldr	r4, [sp, #8]
 8001d9c:	6184      	str	r4, [r0, #24]
 8001d9e:	7101      	strb	r1, [r0, #4]
 8001da0:	9c03      	ldr	r4, [sp, #12]
 8001da2:	73c2      	strb	r2, [r0, #15]
 8001da4:	61c4      	str	r4, [r0, #28]
 8001da6:	6103      	str	r3, [r0, #16]
 8001da8:	f85d 4b04 	ldr.w	r4, [sp], #4
 8001dac:	4718      	bx	r3

08001dae <CAN_API_Read_Message>:
 8001dae:	4601      	mov	r1, r0
 8001db0:	6983      	ldr	r3, [r0, #24]
 8001db2:	3107      	adds	r1, #7
 8001db4:	4718      	bx	r3
	...

08001db8 <CAN_Wrapper_Init>:
 8001db8:	b508      	push	{r3, lr}
 8001dba:	f7ff fe4d 	bl	8001a58 <MX_TIM7_Init>
 8001dbe:	f7ff f96d 	bl	800109c <MX_CAN2_Init>
 8001dc2:	4a17      	ldr	r2, [pc, #92]	; (8001e20 <CAN_Wrapper_Init+0x68>)
 8001dc4:	4917      	ldr	r1, [pc, #92]	; (8001e24 <CAN_Wrapper_Init+0x6c>)
 8001dc6:	6813      	ldr	r3, [r2, #0]
 8001dc8:	f423 3380 	bic.w	r3, r3, #65536	; 0x10000
 8001dcc:	6013      	str	r3, [r2, #0]
 8001dce:	f44f 60c0 	mov.w	r0, #1536	; 0x600
 8001dd2:	2300      	movs	r3, #0
 8001dd4:	e9c1 0300 	strd	r0, r3, [r1]
 8001dd8:	f44f 60fc 	mov.w	r0, #2016	; 0x7e0
 8001ddc:	2201      	movs	r2, #1
 8001dde:	e9c1 0302 	strd	r0, r3, [r1, #8]
 8001de2:	4811      	ldr	r0, [pc, #68]	; (8001e28 <CAN_Wrapper_Init+0x70>)
 8001de4:	620a      	str	r2, [r1, #32]
 8001de6:	e9c1 3206 	strd	r3, r2, [r1, #24]
 8001dea:	614a      	str	r2, [r1, #20]
 8001dec:	610b      	str	r3, [r1, #16]
 8001dee:	624b      	str	r3, [r1, #36]	; 0x24
 8001df0:	f000 fbfe 	bl	80025f0 <HAL_CAN_ConfigFilter>
 8001df4:	b108      	cbz	r0, 8001dfa <CAN_Wrapper_Init+0x42>
 8001df6:	f7ff fb95 	bl	8001524 <Error_Handler>
 8001dfa:	480b      	ldr	r0, [pc, #44]	; (8001e28 <CAN_Wrapper_Init+0x70>)
 8001dfc:	f000 fc80 	bl	8002700 <HAL_CAN_Start>
 8001e00:	b108      	cbz	r0, 8001e06 <CAN_Wrapper_Init+0x4e>
 8001e02:	f7ff fb8f 	bl	8001524 <Error_Handler>
 8001e06:	4808      	ldr	r0, [pc, #32]	; (8001e28 <CAN_Wrapper_Init+0x70>)
 8001e08:	2102      	movs	r1, #2
 8001e0a:	f000 fd6e 	bl	80028ea <HAL_CAN_ActivateNotification>
 8001e0e:	b108      	cbz	r0, 8001e14 <CAN_Wrapper_Init+0x5c>
 8001e10:	f7ff fb88 	bl	8001524 <Error_Handler>
 8001e14:	4805      	ldr	r0, [pc, #20]	; (8001e2c <CAN_Wrapper_Init+0x74>)
 8001e16:	f001 fcef 	bl	80037f8 <HAL_TIM_Base_Start_IT>
 8001e1a:	2000      	movs	r0, #0
 8001e1c:	bd08      	pop	{r3, pc}
 8001e1e:	bf00      	nop
 8001e20:	40006800 	.word	0x40006800
 8001e24:	2000016c 	.word	0x2000016c
 8001e28:	20000244 	.word	0x20000244
 8001e2c:	200002ec 	.word	0x200002ec

08001e30 <CAN_Wrapper_TransmitData>:
 8001e30:	b507      	push	{r0, r1, r2, lr}
 8001e32:	4909      	ldr	r1, [pc, #36]	; (8001e58 <CAN_Wrapper_TransmitData+0x28>)
 8001e34:	9a04      	ldr	r2, [sp, #16]
 8001e36:	610b      	str	r3, [r1, #16]
 8001e38:	2300      	movs	r3, #0
 8001e3a:	e9c1 3302 	strd	r3, r3, [r1, #8]
 8001e3e:	6008      	str	r0, [r1, #0]
 8001e40:	750b      	strb	r3, [r1, #20]
 8001e42:	4806      	ldr	r0, [pc, #24]	; (8001e5c <CAN_Wrapper_TransmitData+0x2c>)
 8001e44:	ab01      	add	r3, sp, #4
 8001e46:	f000 fc89 	bl	800275c <HAL_CAN_AddTxMessage>
 8001e4a:	b108      	cbz	r0, 8001e50 <CAN_Wrapper_TransmitData+0x20>
 8001e4c:	f7ff fb6a 	bl	8001524 <Error_Handler>
 8001e50:	2000      	movs	r0, #0
 8001e52:	b003      	add	sp, #12
 8001e54:	f85d fb04 	ldr.w	pc, [sp], #4
 8001e58:	20000154 	.word	0x20000154
 8001e5c:	20000244 	.word	0x20000244

08001e60 <CAN_Wrapper_ReceiveData>:
 8001e60:	b538      	push	{r3, r4, r5, lr}
 8001e62:	4d06      	ldr	r5, [pc, #24]	; (8001e7c <CAN_Wrapper_ReceiveData+0x1c>)
 8001e64:	4604      	mov	r4, r0
 8001e66:	460b      	mov	r3, r1
 8001e68:	462a      	mov	r2, r5
 8001e6a:	2100      	movs	r1, #0
 8001e6c:	4804      	ldr	r0, [pc, #16]	; (8001e80 <CAN_Wrapper_ReceiveData+0x20>)
 8001e6e:	f000 fcc5 	bl	80027fc <HAL_CAN_GetRxMessage>
 8001e72:	682b      	ldr	r3, [r5, #0]
 8001e74:	6023      	str	r3, [r4, #0]
 8001e76:	2000      	movs	r0, #0
 8001e78:	bd38      	pop	{r3, r4, r5, pc}
 8001e7a:	bf00      	nop
 8001e7c:	20000138 	.word	0x20000138
 8001e80:	20000244 	.word	0x20000244

08001e84 <CAN_Wrapper_DataCount>:
 8001e84:	2000      	movs	r0, #0
 8001e86:	4770      	bx	lr

08001e88 <SystemInit>:
 8001e88:	4a03      	ldr	r2, [pc, #12]	; (8001e98 <SystemInit+0x10>)
 8001e8a:	f8d2 3088 	ldr.w	r3, [r2, #136]	; 0x88
 8001e8e:	f443 0370 	orr.w	r3, r3, #15728640	; 0xf00000
 8001e92:	f8c2 3088 	str.w	r3, [r2, #136]	; 0x88
 8001e96:	4770      	bx	lr
 8001e98:	e000ed00 	.word	0xe000ed00

08001e9c <HAL_InitTick>:
 8001e9c:	b538      	push	{r3, r4, r5, lr}
 8001e9e:	4a0e      	ldr	r2, [pc, #56]	; (8001ed8 <HAL_InitTick+0x3c>)
 8001ea0:	4b0e      	ldr	r3, [pc, #56]	; (8001edc <HAL_InitTick+0x40>)
 8001ea2:	4605      	mov	r5, r0
 8001ea4:	7818      	ldrb	r0, [r3, #0]
 8001ea6:	f44f 737a 	mov.w	r3, #1000	; 0x3e8
 8001eaa:	fbb3 f3f0 	udiv	r3, r3, r0
 8001eae:	6810      	ldr	r0, [r2, #0]
 8001eb0:	fbb0 f0f3 	udiv	r0, r0, r3
 8001eb4:	f000 fe86 	bl	8002bc4 <HAL_SYSTICK_Config>
 8001eb8:	4604      	mov	r4, r0
 8001eba:	b958      	cbnz	r0, 8001ed4 <HAL_InitTick+0x38>
 8001ebc:	2d0f      	cmp	r5, #15
 8001ebe:	d809      	bhi.n	8001ed4 <HAL_InitTick+0x38>
 8001ec0:	4602      	mov	r2, r0
 8001ec2:	4629      	mov	r1, r5
 8001ec4:	f04f 30ff 	mov.w	r0, #4294967295
 8001ec8:	f000 fe3c 	bl	8002b44 <HAL_NVIC_SetPriority>
 8001ecc:	4b04      	ldr	r3, [pc, #16]	; (8001ee0 <HAL_InitTick+0x44>)
 8001ece:	4620      	mov	r0, r4
 8001ed0:	601d      	str	r5, [r3, #0]
 8001ed2:	bd38      	pop	{r3, r4, r5, pc}
 8001ed4:	2001      	movs	r0, #1
 8001ed6:	e7fc      	b.n	8001ed2 <HAL_InitTick+0x36>
 8001ed8:	20000050 	.word	0x20000050
 8001edc:	20000054 	.word	0x20000054
 8001ee0:	20000058 	.word	0x20000058

08001ee4 <HAL_Init>:
 8001ee4:	b508      	push	{r3, lr}
 8001ee6:	4b0b      	ldr	r3, [pc, #44]	; (8001f14 <HAL_Init+0x30>)
 8001ee8:	681a      	ldr	r2, [r3, #0]
 8001eea:	f442 7200 	orr.w	r2, r2, #512	; 0x200
 8001eee:	601a      	str	r2, [r3, #0]
 8001ef0:	681a      	ldr	r2, [r3, #0]
 8001ef2:	f442 6280 	orr.w	r2, r2, #1024	; 0x400
 8001ef6:	601a      	str	r2, [r3, #0]
 8001ef8:	681a      	ldr	r2, [r3, #0]
 8001efa:	f442 7280 	orr.w	r2, r2, #256	; 0x100
 8001efe:	601a      	str	r2, [r3, #0]
 8001f00:	2003      	movs	r0, #3
 8001f02:	f000 fe0d 	bl	8002b20 <HAL_NVIC_SetPriorityGrouping>
 8001f06:	200f      	movs	r0, #15
 8001f08:	f7ff ffc8 	bl	8001e9c <HAL_InitTick>
 8001f0c:	f7ff fd10 	bl	8001930 <HAL_MspInit>
 8001f10:	2000      	movs	r0, #0
 8001f12:	bd08      	pop	{r3, pc}
 8001f14:	40023c00 	.word	0x40023c00

08001f18 <HAL_IncTick>:
 8001f18:	4a03      	ldr	r2, [pc, #12]	; (8001f28 <HAL_IncTick+0x10>)
 8001f1a:	4b04      	ldr	r3, [pc, #16]	; (8001f2c <HAL_IncTick+0x14>)
 8001f1c:	6811      	ldr	r1, [r2, #0]
 8001f1e:	781b      	ldrb	r3, [r3, #0]
 8001f20:	440b      	add	r3, r1
 8001f22:	6013      	str	r3, [r2, #0]
 8001f24:	4770      	bx	lr
 8001f26:	bf00      	nop
 8001f28:	20000378 	.word	0x20000378
 8001f2c:	20000054 	.word	0x20000054

08001f30 <HAL_GetTick>:
 8001f30:	4b01      	ldr	r3, [pc, #4]	; (8001f38 <HAL_GetTick+0x8>)
 8001f32:	6818      	ldr	r0, [r3, #0]
 8001f34:	4770      	bx	lr
 8001f36:	bf00      	nop
 8001f38:	20000378 	.word	0x20000378

08001f3c <HAL_Delay>:
 8001f3c:	b538      	push	{r3, r4, r5, lr}
 8001f3e:	4604      	mov	r4, r0
 8001f40:	f7ff fff6 	bl	8001f30 <HAL_GetTick>
 8001f44:	1c63      	adds	r3, r4, #1
 8001f46:	bf1c      	itt	ne
 8001f48:	4b05      	ldrne	r3, [pc, #20]	; (8001f60 <HAL_Delay+0x24>)
 8001f4a:	781b      	ldrbne	r3, [r3, #0]
 8001f4c:	4605      	mov	r5, r0
 8001f4e:	bf18      	it	ne
 8001f50:	18e4      	addne	r4, r4, r3
 8001f52:	f7ff ffed 	bl	8001f30 <HAL_GetTick>
 8001f56:	1b43      	subs	r3, r0, r5
 8001f58:	42a3      	cmp	r3, r4
 8001f5a:	d3fa      	bcc.n	8001f52 <HAL_Delay+0x16>
 8001f5c:	bd38      	pop	{r3, r4, r5, pc}
 8001f5e:	bf00      	nop
 8001f60:	20000054 	.word	0x20000054

08001f64 <HAL_ADC_Init>:
 8001f64:	b538      	push	{r3, r4, r5, lr}
 8001f66:	4604      	mov	r4, r0
 8001f68:	2800      	cmp	r0, #0
 8001f6a:	f000 809b 	beq.w	80020a4 <HAL_ADC_Init+0x140>
 8001f6e:	6c05      	ldr	r5, [r0, #64]	; 0x40
 8001f70:	b925      	cbnz	r5, 8001f7c <HAL_ADC_Init+0x18>
 8001f72:	f7fe ff7d 	bl	8000e70 <HAL_ADC_MspInit>
 8001f76:	6465      	str	r5, [r4, #68]	; 0x44
 8001f78:	f884 503c 	strb.w	r5, [r4, #60]	; 0x3c
 8001f7c:	6c23      	ldr	r3, [r4, #64]	; 0x40
 8001f7e:	06db      	lsls	r3, r3, #27
 8001f80:	f100 808e 	bmi.w	80020a0 <HAL_ADC_Init+0x13c>
 8001f84:	6c23      	ldr	r3, [r4, #64]	; 0x40
 8001f86:	f423 5388 	bic.w	r3, r3, #4352	; 0x1100
 8001f8a:	f023 0302 	bic.w	r3, r3, #2
 8001f8e:	f043 0302 	orr.w	r3, r3, #2
 8001f92:	6423      	str	r3, [r4, #64]	; 0x40
 8001f94:	4b44      	ldr	r3, [pc, #272]	; (80020a8 <HAL_ADC_Init+0x144>)
 8001f96:	685a      	ldr	r2, [r3, #4]
 8001f98:	f422 3240 	bic.w	r2, r2, #196608	; 0x30000
 8001f9c:	605a      	str	r2, [r3, #4]
 8001f9e:	685a      	ldr	r2, [r3, #4]
 8001fa0:	6861      	ldr	r1, [r4, #4]
 8001fa2:	430a      	orrs	r2, r1
 8001fa4:	605a      	str	r2, [r3, #4]
 8001fa6:	6823      	ldr	r3, [r4, #0]
 8001fa8:	6921      	ldr	r1, [r4, #16]
 8001faa:	685a      	ldr	r2, [r3, #4]
 8001fac:	f422 7280 	bic.w	r2, r2, #256	; 0x100
 8001fb0:	605a      	str	r2, [r3, #4]
 8001fb2:	685a      	ldr	r2, [r3, #4]
 8001fb4:	ea42 2201 	orr.w	r2, r2, r1, lsl #8
 8001fb8:	605a      	str	r2, [r3, #4]
 8001fba:	685a      	ldr	r2, [r3, #4]
 8001fbc:	68a1      	ldr	r1, [r4, #8]
 8001fbe:	f022 7240 	bic.w	r2, r2, #50331648	; 0x3000000
 8001fc2:	605a      	str	r2, [r3, #4]
 8001fc4:	685a      	ldr	r2, [r3, #4]
 8001fc6:	430a      	orrs	r2, r1
 8001fc8:	605a      	str	r2, [r3, #4]
 8001fca:	689a      	ldr	r2, [r3, #8]
 8001fcc:	68e1      	ldr	r1, [r4, #12]
 8001fce:	f422 6200 	bic.w	r2, r2, #2048	; 0x800
 8001fd2:	609a      	str	r2, [r3, #8]
 8001fd4:	689a      	ldr	r2, [r3, #8]
 8001fd6:	430a      	orrs	r2, r1
 8001fd8:	609a      	str	r2, [r3, #8]
 8001fda:	4934      	ldr	r1, [pc, #208]	; (80020ac <HAL_ADC_Init+0x148>)
 8001fdc:	6aa2      	ldr	r2, [r4, #40]	; 0x28
 8001fde:	428a      	cmp	r2, r1
 8001fe0:	d052      	beq.n	8002088 <HAL_ADC_Init+0x124>
 8001fe2:	6899      	ldr	r1, [r3, #8]
 8001fe4:	f021 6170 	bic.w	r1, r1, #251658240	; 0xf000000
 8001fe8:	6099      	str	r1, [r3, #8]
 8001fea:	6899      	ldr	r1, [r3, #8]
 8001fec:	430a      	orrs	r2, r1
 8001fee:	609a      	str	r2, [r3, #8]
 8001ff0:	689a      	ldr	r2, [r3, #8]
 8001ff2:	6ae1      	ldr	r1, [r4, #44]	; 0x2c
 8001ff4:	f022 5240 	bic.w	r2, r2, #805306368	; 0x30000000
 8001ff8:	609a      	str	r2, [r3, #8]
 8001ffa:	689a      	ldr	r2, [r3, #8]
 8001ffc:	430a      	orrs	r2, r1
 8001ffe:	609a      	str	r2, [r3, #8]
 8002000:	689a      	ldr	r2, [r3, #8]
 8002002:	f022 0202 	bic.w	r2, r2, #2
 8002006:	609a      	str	r2, [r3, #8]
 8002008:	689a      	ldr	r2, [r3, #8]
 800200a:	7e21      	ldrb	r1, [r4, #24]
 800200c:	ea42 0241 	orr.w	r2, r2, r1, lsl #1
 8002010:	609a      	str	r2, [r3, #8]
 8002012:	f894 2020 	ldrb.w	r2, [r4, #32]
 8002016:	2a00      	cmp	r2, #0
 8002018:	d03e      	beq.n	8002098 <HAL_ADC_Init+0x134>
 800201a:	685a      	ldr	r2, [r3, #4]
 800201c:	6a61      	ldr	r1, [r4, #36]	; 0x24
 800201e:	f442 6200 	orr.w	r2, r2, #2048	; 0x800
 8002022:	605a      	str	r2, [r3, #4]
 8002024:	685a      	ldr	r2, [r3, #4]
 8002026:	f422 4260 	bic.w	r2, r2, #57344	; 0xe000
 800202a:	605a      	str	r2, [r3, #4]
 800202c:	685a      	ldr	r2, [r3, #4]
 800202e:	3901      	subs	r1, #1
 8002030:	ea42 3241 	orr.w	r2, r2, r1, lsl #13
 8002034:	605a      	str	r2, [r3, #4]
 8002036:	6ada      	ldr	r2, [r3, #44]	; 0x2c
 8002038:	69e1      	ldr	r1, [r4, #28]
 800203a:	f422 0270 	bic.w	r2, r2, #15728640	; 0xf00000
 800203e:	62da      	str	r2, [r3, #44]	; 0x2c
 8002040:	6ada      	ldr	r2, [r3, #44]	; 0x2c
 8002042:	3901      	subs	r1, #1
 8002044:	ea42 5201 	orr.w	r2, r2, r1, lsl #20
 8002048:	62da      	str	r2, [r3, #44]	; 0x2c
 800204a:	689a      	ldr	r2, [r3, #8]
 800204c:	f422 7200 	bic.w	r2, r2, #512	; 0x200
 8002050:	609a      	str	r2, [r3, #8]
 8002052:	689a      	ldr	r2, [r3, #8]
 8002054:	f894 1030 	ldrb.w	r1, [r4, #48]	; 0x30
 8002058:	ea42 2241 	orr.w	r2, r2, r1, lsl #9
 800205c:	609a      	str	r2, [r3, #8]
 800205e:	689a      	ldr	r2, [r3, #8]
 8002060:	6961      	ldr	r1, [r4, #20]
 8002062:	f422 6280 	bic.w	r2, r2, #1024	; 0x400
 8002066:	609a      	str	r2, [r3, #8]
 8002068:	689a      	ldr	r2, [r3, #8]
 800206a:	2000      	movs	r0, #0
 800206c:	ea42 2281 	orr.w	r2, r2, r1, lsl #10
 8002070:	609a      	str	r2, [r3, #8]
 8002072:	6460      	str	r0, [r4, #68]	; 0x44
 8002074:	6c23      	ldr	r3, [r4, #64]	; 0x40
 8002076:	f023 0303 	bic.w	r3, r3, #3
 800207a:	f043 0301 	orr.w	r3, r3, #1
 800207e:	6423      	str	r3, [r4, #64]	; 0x40
 8002080:	2300      	movs	r3, #0
 8002082:	f884 303c 	strb.w	r3, [r4, #60]	; 0x3c
 8002086:	bd38      	pop	{r3, r4, r5, pc}
 8002088:	689a      	ldr	r2, [r3, #8]
 800208a:	f022 6270 	bic.w	r2, r2, #251658240	; 0xf000000
 800208e:	609a      	str	r2, [r3, #8]
 8002090:	689a      	ldr	r2, [r3, #8]
 8002092:	f022 5240 	bic.w	r2, r2, #805306368	; 0x30000000
 8002096:	e7b2      	b.n	8001ffe <HAL_ADC_Init+0x9a>
 8002098:	685a      	ldr	r2, [r3, #4]
 800209a:	f422 6200 	bic.w	r2, r2, #2048	; 0x800
 800209e:	e7c9      	b.n	8002034 <HAL_ADC_Init+0xd0>
 80020a0:	2001      	movs	r0, #1
 80020a2:	e7ed      	b.n	8002080 <HAL_ADC_Init+0x11c>
 80020a4:	2001      	movs	r0, #1
 80020a6:	e7ee      	b.n	8002086 <HAL_ADC_Init+0x122>
 80020a8:	40012300 	.word	0x40012300
 80020ac:	0f000001 	.word	0x0f000001

080020b0 <HAL_ADC_Start_DMA>:
 80020b0:	b573      	push	{r0, r1, r4, r5, r6, lr}
 80020b2:	4613      	mov	r3, r2
 80020b4:	2200      	movs	r2, #0
 80020b6:	9201      	str	r2, [sp, #4]
 80020b8:	f890 203c 	ldrb.w	r2, [r0, #60]	; 0x3c
 80020bc:	2a01      	cmp	r2, #1
 80020be:	4605      	mov	r5, r0
 80020c0:	f000 808c 	beq.w	80021dc <HAL_ADC_Start_DMA+0x12c>
 80020c4:	2201      	movs	r2, #1
 80020c6:	6806      	ldr	r6, [r0, #0]
 80020c8:	f880 203c 	strb.w	r2, [r0, #60]	; 0x3c
 80020cc:	68b2      	ldr	r2, [r6, #8]
 80020ce:	07d4      	lsls	r4, r2, #31
 80020d0:	d554      	bpl.n	800217c <HAL_ADC_Start_DMA+0xcc>
 80020d2:	68b2      	ldr	r2, [r6, #8]
 80020d4:	05d0      	lsls	r0, r2, #23
 80020d6:	d464      	bmi.n	80021a2 <HAL_ADC_Start_DMA+0xf2>
 80020d8:	68b4      	ldr	r4, [r6, #8]
 80020da:	f014 0401 	ands.w	r4, r4, #1
 80020de:	d074      	beq.n	80021ca <HAL_ADC_Start_DMA+0x11a>
 80020e0:	6c28      	ldr	r0, [r5, #64]	; 0x40
 80020e2:	f420 60e0 	bic.w	r0, r0, #1792	; 0x700
 80020e6:	f020 0001 	bic.w	r0, r0, #1
 80020ea:	f440 7080 	orr.w	r0, r0, #256	; 0x100
 80020ee:	6428      	str	r0, [r5, #64]	; 0x40
 80020f0:	6872      	ldr	r2, [r6, #4]
 80020f2:	0552      	lsls	r2, r2, #21
 80020f4:	bf41      	itttt	mi
 80020f6:	6c28      	ldrmi	r0, [r5, #64]	; 0x40
 80020f8:	f420 5040 	bicmi.w	r0, r0, #12288	; 0x3000
 80020fc:	f440 5080 	orrmi.w	r0, r0, #4096	; 0x1000
 8002100:	6428      	strmi	r0, [r5, #64]	; 0x40
 8002102:	6c2a      	ldr	r2, [r5, #64]	; 0x40
 8002104:	6ba8      	ldr	r0, [r5, #56]	; 0x38
 8002106:	f412 5280 	ands.w	r2, r2, #4096	; 0x1000
 800210a:	bf1c      	itt	ne
 800210c:	6c6a      	ldrne	r2, [r5, #68]	; 0x44
 800210e:	f022 0206 	bicne.w	r2, r2, #6
 8002112:	646a      	str	r2, [r5, #68]	; 0x44
 8002114:	2400      	movs	r4, #0
 8002116:	4a33      	ldr	r2, [pc, #204]	; (80021e4 <HAL_ADC_Start_DMA+0x134>)
 8002118:	f885 403c 	strb.w	r4, [r5, #60]	; 0x3c
 800211c:	63c2      	str	r2, [r0, #60]	; 0x3c
 800211e:	4a32      	ldr	r2, [pc, #200]	; (80021e8 <HAL_ADC_Start_DMA+0x138>)
 8002120:	6402      	str	r2, [r0, #64]	; 0x40
 8002122:	4a32      	ldr	r2, [pc, #200]	; (80021ec <HAL_ADC_Start_DMA+0x13c>)
 8002124:	64c2      	str	r2, [r0, #76]	; 0x4c
 8002126:	f06f 0222 	mvn.w	r2, #34	; 0x22
 800212a:	6032      	str	r2, [r6, #0]
 800212c:	6872      	ldr	r2, [r6, #4]
 800212e:	f042 6280 	orr.w	r2, r2, #67108864	; 0x4000000
 8002132:	6072      	str	r2, [r6, #4]
 8002134:	68b2      	ldr	r2, [r6, #8]
 8002136:	f442 7280 	orr.w	r2, r2, #256	; 0x100
 800213a:	60b2      	str	r2, [r6, #8]
 800213c:	460a      	mov	r2, r1
 800213e:	f106 014c 	add.w	r1, r6, #76	; 0x4c
 8002142:	f000 fdeb 	bl	8002d1c <HAL_DMA_Start_IT>
 8002146:	4a2a      	ldr	r2, [pc, #168]	; (80021f0 <HAL_ADC_Start_DMA+0x140>)
 8002148:	682b      	ldr	r3, [r5, #0]
 800214a:	6850      	ldr	r0, [r2, #4]
 800214c:	4929      	ldr	r1, [pc, #164]	; (80021f4 <HAL_ADC_Start_DMA+0x144>)
 800214e:	f010 001f 	ands.w	r0, r0, #31
 8002152:	d132      	bne.n	80021ba <HAL_ADC_Start_DMA+0x10a>
 8002154:	428b      	cmp	r3, r1
 8002156:	d007      	beq.n	8002168 <HAL_ADC_Start_DMA+0xb8>
 8002158:	f501 7180 	add.w	r1, r1, #256	; 0x100
 800215c:	428b      	cmp	r3, r1
 800215e:	d125      	bne.n	80021ac <HAL_ADC_Start_DMA+0xfc>
 8002160:	6852      	ldr	r2, [r2, #4]
 8002162:	f012 0f1f 	tst.w	r2, #31
 8002166:	d107      	bne.n	8002178 <HAL_ADC_Start_DMA+0xc8>
 8002168:	6898      	ldr	r0, [r3, #8]
 800216a:	f010 5040 	ands.w	r0, r0, #805306368	; 0x30000000
 800216e:	d137      	bne.n	80021e0 <HAL_ADC_Start_DMA+0x130>
 8002170:	689a      	ldr	r2, [r3, #8]
 8002172:	f042 4280 	orr.w	r2, r2, #1073741824	; 0x40000000
 8002176:	609a      	str	r2, [r3, #8]
 8002178:	b002      	add	sp, #8
 800217a:	bd70      	pop	{r4, r5, r6, pc}
 800217c:	68b2      	ldr	r2, [r6, #8]
 800217e:	f042 0201 	orr.w	r2, r2, #1
 8002182:	60b2      	str	r2, [r6, #8]
 8002184:	4a1c      	ldr	r2, [pc, #112]	; (80021f8 <HAL_ADC_Start_DMA+0x148>)
 8002186:	6810      	ldr	r0, [r2, #0]
 8002188:	4a1c      	ldr	r2, [pc, #112]	; (80021fc <HAL_ADC_Start_DMA+0x14c>)
 800218a:	fbb0 f0f2 	udiv	r0, r0, r2
 800218e:	eb00 0040 	add.w	r0, r0, r0, lsl #1
 8002192:	9001      	str	r0, [sp, #4]
 8002194:	9a01      	ldr	r2, [sp, #4]
 8002196:	2a00      	cmp	r2, #0
 8002198:	d09b      	beq.n	80020d2 <HAL_ADC_Start_DMA+0x22>
 800219a:	9a01      	ldr	r2, [sp, #4]
 800219c:	3a01      	subs	r2, #1
 800219e:	9201      	str	r2, [sp, #4]
 80021a0:	e7f8      	b.n	8002194 <HAL_ADC_Start_DMA+0xe4>
 80021a2:	68b2      	ldr	r2, [r6, #8]
 80021a4:	f422 7280 	bic.w	r2, r2, #256	; 0x100
 80021a8:	60b2      	str	r2, [r6, #8]
 80021aa:	e795      	b.n	80020d8 <HAL_ADC_Start_DMA+0x28>
 80021ac:	4914      	ldr	r1, [pc, #80]	; (8002200 <HAL_ADC_Start_DMA+0x150>)
 80021ae:	428b      	cmp	r3, r1
 80021b0:	d1e2      	bne.n	8002178 <HAL_ADC_Start_DMA+0xc8>
 80021b2:	6852      	ldr	r2, [r2, #4]
 80021b4:	f012 0f10 	tst.w	r2, #16
 80021b8:	e7d5      	b.n	8002166 <HAL_ADC_Start_DMA+0xb6>
 80021ba:	428b      	cmp	r3, r1
 80021bc:	d110      	bne.n	80021e0 <HAL_ADC_Start_DMA+0x130>
 80021be:	6898      	ldr	r0, [r3, #8]
 80021c0:	f010 5040 	ands.w	r0, r0, #805306368	; 0x30000000
 80021c4:	d0d4      	beq.n	8002170 <HAL_ADC_Start_DMA+0xc0>
 80021c6:	4620      	mov	r0, r4
 80021c8:	e7d6      	b.n	8002178 <HAL_ADC_Start_DMA+0xc8>
 80021ca:	6c2b      	ldr	r3, [r5, #64]	; 0x40
 80021cc:	f043 0310 	orr.w	r3, r3, #16
 80021d0:	642b      	str	r3, [r5, #64]	; 0x40
 80021d2:	6c6b      	ldr	r3, [r5, #68]	; 0x44
 80021d4:	f043 0301 	orr.w	r3, r3, #1
 80021d8:	646b      	str	r3, [r5, #68]	; 0x44
 80021da:	e7f4      	b.n	80021c6 <HAL_ADC_Start_DMA+0x116>
 80021dc:	2002      	movs	r0, #2
 80021de:	e7cb      	b.n	8002178 <HAL_ADC_Start_DMA+0xc8>
 80021e0:	2000      	movs	r0, #0
 80021e2:	e7c9      	b.n	8002178 <HAL_ADC_Start_DMA+0xc8>
 80021e4:	08002353 	.word	0x08002353
 80021e8:	08002207 	.word	0x08002207
 80021ec:	0800233d 	.word	0x0800233d
 80021f0:	40012300 	.word	0x40012300
 80021f4:	40012000 	.word	0x40012000
 80021f8:	20000050 	.word	0x20000050
 80021fc:	000f4240 	.word	0x000f4240
 8002200:	40012200 	.word	0x40012200

08002204 <HAL_ADC_ConvHalfCpltCallback>:
 8002204:	4770      	bx	lr

08002206 <ADC_DMAHalfConvCplt>:
 8002206:	b508      	push	{r3, lr}
 8002208:	6b80      	ldr	r0, [r0, #56]	; 0x38
 800220a:	f7ff fffb 	bl	8002204 <HAL_ADC_ConvHalfCpltCallback>
 800220e:	bd08      	pop	{r3, pc}

08002210 <HAL_ADC_LevelOutOfWindowCallback>:
 8002210:	4770      	bx	lr

08002212 <HAL_ADC_ErrorCallback>:
 8002212:	4770      	bx	lr

08002214 <HAL_ADC_IRQHandler>:
 8002214:	b538      	push	{r3, r4, r5, lr}
 8002216:	6803      	ldr	r3, [r0, #0]
 8002218:	6819      	ldr	r1, [r3, #0]
 800221a:	685a      	ldr	r2, [r3, #4]
 800221c:	078d      	lsls	r5, r1, #30
 800221e:	4604      	mov	r4, r0
 8002220:	d52b      	bpl.n	800227a <HAL_ADC_IRQHandler+0x66>
 8002222:	0690      	lsls	r0, r2, #26
 8002224:	d529      	bpl.n	800227a <HAL_ADC_IRQHandler+0x66>
 8002226:	6c22      	ldr	r2, [r4, #64]	; 0x40
 8002228:	06d1      	lsls	r1, r2, #27
 800222a:	bf5e      	ittt	pl
 800222c:	6c22      	ldrpl	r2, [r4, #64]	; 0x40
 800222e:	f442 7200 	orrpl.w	r2, r2, #512	; 0x200
 8002232:	6422      	strpl	r2, [r4, #64]	; 0x40
 8002234:	689a      	ldr	r2, [r3, #8]
 8002236:	f012 5f40 	tst.w	r2, #805306368	; 0x30000000
 800223a:	d117      	bne.n	800226c <HAL_ADC_IRQHandler+0x58>
 800223c:	7e22      	ldrb	r2, [r4, #24]
 800223e:	b9aa      	cbnz	r2, 800226c <HAL_ADC_IRQHandler+0x58>
 8002240:	6ada      	ldr	r2, [r3, #44]	; 0x2c
 8002242:	f412 0f70 	tst.w	r2, #15728640	; 0xf00000
 8002246:	d002      	beq.n	800224e <HAL_ADC_IRQHandler+0x3a>
 8002248:	689a      	ldr	r2, [r3, #8]
 800224a:	0552      	lsls	r2, r2, #21
 800224c:	d40e      	bmi.n	800226c <HAL_ADC_IRQHandler+0x58>
 800224e:	685a      	ldr	r2, [r3, #4]
 8002250:	f022 0220 	bic.w	r2, r2, #32
 8002254:	605a      	str	r2, [r3, #4]
 8002256:	6c23      	ldr	r3, [r4, #64]	; 0x40
 8002258:	f423 7380 	bic.w	r3, r3, #256	; 0x100
 800225c:	6423      	str	r3, [r4, #64]	; 0x40
 800225e:	6c23      	ldr	r3, [r4, #64]	; 0x40
 8002260:	04db      	lsls	r3, r3, #19
 8002262:	bf5e      	ittt	pl
 8002264:	6c23      	ldrpl	r3, [r4, #64]	; 0x40
 8002266:	f043 0301 	orrpl.w	r3, r3, #1
 800226a:	6423      	strpl	r3, [r4, #64]	; 0x40
 800226c:	4620      	mov	r0, r4
 800226e:	f7ff fb4d 	bl	800190c <HAL_ADC_ConvCpltCallback>
 8002272:	6823      	ldr	r3, [r4, #0]
 8002274:	f06f 0212 	mvn.w	r2, #18
 8002278:	601a      	str	r2, [r3, #0]
 800227a:	6823      	ldr	r3, [r4, #0]
 800227c:	6819      	ldr	r1, [r3, #0]
 800227e:	685a      	ldr	r2, [r3, #4]
 8002280:	074d      	lsls	r5, r1, #29
 8002282:	d532      	bpl.n	80022ea <HAL_ADC_IRQHandler+0xd6>
 8002284:	0610      	lsls	r0, r2, #24
 8002286:	d530      	bpl.n	80022ea <HAL_ADC_IRQHandler+0xd6>
 8002288:	6c22      	ldr	r2, [r4, #64]	; 0x40
 800228a:	06d1      	lsls	r1, r2, #27
 800228c:	bf5e      	ittt	pl
 800228e:	6c22      	ldrpl	r2, [r4, #64]	; 0x40
 8002290:	f442 5200 	orrpl.w	r2, r2, #8192	; 0x2000
 8002294:	6422      	strpl	r2, [r4, #64]	; 0x40
 8002296:	689a      	ldr	r2, [r3, #8]
 8002298:	f412 1f40 	tst.w	r2, #3145728	; 0x300000
 800229c:	d11e      	bne.n	80022dc <HAL_ADC_IRQHandler+0xc8>
 800229e:	6b9a      	ldr	r2, [r3, #56]	; 0x38
 80022a0:	f412 1f40 	tst.w	r2, #3145728	; 0x300000
 80022a4:	d002      	beq.n	80022ac <HAL_ADC_IRQHandler+0x98>
 80022a6:	689a      	ldr	r2, [r3, #8]
 80022a8:	0552      	lsls	r2, r2, #21
 80022aa:	d417      	bmi.n	80022dc <HAL_ADC_IRQHandler+0xc8>
 80022ac:	685a      	ldr	r2, [r3, #4]
 80022ae:	0555      	lsls	r5, r2, #21
 80022b0:	d414      	bmi.n	80022dc <HAL_ADC_IRQHandler+0xc8>
 80022b2:	689a      	ldr	r2, [r3, #8]
 80022b4:	f012 5f40 	tst.w	r2, #805306368	; 0x30000000
 80022b8:	d110      	bne.n	80022dc <HAL_ADC_IRQHandler+0xc8>
 80022ba:	7e22      	ldrb	r2, [r4, #24]
 80022bc:	b972      	cbnz	r2, 80022dc <HAL_ADC_IRQHandler+0xc8>
 80022be:	685a      	ldr	r2, [r3, #4]
 80022c0:	f022 0280 	bic.w	r2, r2, #128	; 0x80
 80022c4:	605a      	str	r2, [r3, #4]
 80022c6:	6c23      	ldr	r3, [r4, #64]	; 0x40
 80022c8:	f423 5380 	bic.w	r3, r3, #4096	; 0x1000
 80022cc:	6423      	str	r3, [r4, #64]	; 0x40
 80022ce:	6c23      	ldr	r3, [r4, #64]	; 0x40
 80022d0:	05d8      	lsls	r0, r3, #23
 80022d2:	bf5e      	ittt	pl
 80022d4:	6c23      	ldrpl	r3, [r4, #64]	; 0x40
 80022d6:	f043 0301 	orrpl.w	r3, r3, #1
 80022da:	6423      	strpl	r3, [r4, #64]	; 0x40
 80022dc:	4620      	mov	r0, r4
 80022de:	f000 f90b 	bl	80024f8 <HAL_ADCEx_InjectedConvCpltCallback>
 80022e2:	6823      	ldr	r3, [r4, #0]
 80022e4:	f06f 020c 	mvn.w	r2, #12
 80022e8:	601a      	str	r2, [r3, #0]
 80022ea:	6823      	ldr	r3, [r4, #0]
 80022ec:	6819      	ldr	r1, [r3, #0]
 80022ee:	685a      	ldr	r2, [r3, #4]
 80022f0:	07c9      	lsls	r1, r1, #31
 80022f2:	d50f      	bpl.n	8002314 <HAL_ADC_IRQHandler+0x100>
 80022f4:	0655      	lsls	r5, r2, #25
 80022f6:	d50d      	bpl.n	8002314 <HAL_ADC_IRQHandler+0x100>
 80022f8:	681b      	ldr	r3, [r3, #0]
 80022fa:	07d8      	lsls	r0, r3, #31
 80022fc:	d50a      	bpl.n	8002314 <HAL_ADC_IRQHandler+0x100>
 80022fe:	6c23      	ldr	r3, [r4, #64]	; 0x40
 8002300:	f443 3380 	orr.w	r3, r3, #65536	; 0x10000
 8002304:	6423      	str	r3, [r4, #64]	; 0x40
 8002306:	4620      	mov	r0, r4
 8002308:	f7ff ff82 	bl	8002210 <HAL_ADC_LevelOutOfWindowCallback>
 800230c:	6823      	ldr	r3, [r4, #0]
 800230e:	f06f 0201 	mvn.w	r2, #1
 8002312:	601a      	str	r2, [r3, #0]
 8002314:	6823      	ldr	r3, [r4, #0]
 8002316:	6819      	ldr	r1, [r3, #0]
 8002318:	685a      	ldr	r2, [r3, #4]
 800231a:	0689      	lsls	r1, r1, #26
 800231c:	d50d      	bpl.n	800233a <HAL_ADC_IRQHandler+0x126>
 800231e:	0152      	lsls	r2, r2, #5
 8002320:	d50b      	bpl.n	800233a <HAL_ADC_IRQHandler+0x126>
 8002322:	6c62      	ldr	r2, [r4, #68]	; 0x44
 8002324:	f06f 0520 	mvn.w	r5, #32
 8002328:	f042 0202 	orr.w	r2, r2, #2
 800232c:	6462      	str	r2, [r4, #68]	; 0x44
 800232e:	4620      	mov	r0, r4
 8002330:	601d      	str	r5, [r3, #0]
 8002332:	f7ff ff6e 	bl	8002212 <HAL_ADC_ErrorCallback>
 8002336:	6823      	ldr	r3, [r4, #0]
 8002338:	601d      	str	r5, [r3, #0]
 800233a:	bd38      	pop	{r3, r4, r5, pc}

0800233c <ADC_DMAError>:
 800233c:	6b80      	ldr	r0, [r0, #56]	; 0x38
 800233e:	b508      	push	{r3, lr}
 8002340:	2340      	movs	r3, #64	; 0x40
 8002342:	6403      	str	r3, [r0, #64]	; 0x40
 8002344:	6c43      	ldr	r3, [r0, #68]	; 0x44
 8002346:	f043 0304 	orr.w	r3, r3, #4
 800234a:	6443      	str	r3, [r0, #68]	; 0x44
 800234c:	f7ff ff61 	bl	8002212 <HAL_ADC_ErrorCallback>
 8002350:	bd08      	pop	{r3, pc}

08002352 <ADC_DMAConvCplt>:
 8002352:	6b83      	ldr	r3, [r0, #56]	; 0x38
 8002354:	6c1a      	ldr	r2, [r3, #64]	; 0x40
 8002356:	f012 0f50 	tst.w	r2, #80	; 0x50
 800235a:	b510      	push	{r4, lr}
 800235c:	6c1a      	ldr	r2, [r3, #64]	; 0x40
 800235e:	d123      	bne.n	80023a8 <ADC_DMAConvCplt+0x56>
 8002360:	f442 7200 	orr.w	r2, r2, #512	; 0x200
 8002364:	641a      	str	r2, [r3, #64]	; 0x40
 8002366:	681a      	ldr	r2, [r3, #0]
 8002368:	6891      	ldr	r1, [r2, #8]
 800236a:	f011 5f40 	tst.w	r1, #805306368	; 0x30000000
 800236e:	d117      	bne.n	80023a0 <ADC_DMAConvCplt+0x4e>
 8002370:	7e19      	ldrb	r1, [r3, #24]
 8002372:	b9a9      	cbnz	r1, 80023a0 <ADC_DMAConvCplt+0x4e>
 8002374:	6ad1      	ldr	r1, [r2, #44]	; 0x2c
 8002376:	f411 0f70 	tst.w	r1, #15728640	; 0xf00000
 800237a:	d002      	beq.n	8002382 <ADC_DMAConvCplt+0x30>
 800237c:	6891      	ldr	r1, [r2, #8]
 800237e:	0548      	lsls	r0, r1, #21
 8002380:	d40e      	bmi.n	80023a0 <ADC_DMAConvCplt+0x4e>
 8002382:	6851      	ldr	r1, [r2, #4]
 8002384:	f021 0120 	bic.w	r1, r1, #32
 8002388:	6051      	str	r1, [r2, #4]
 800238a:	6c1a      	ldr	r2, [r3, #64]	; 0x40
 800238c:	f422 7280 	bic.w	r2, r2, #256	; 0x100
 8002390:	641a      	str	r2, [r3, #64]	; 0x40
 8002392:	6c1a      	ldr	r2, [r3, #64]	; 0x40
 8002394:	04d1      	lsls	r1, r2, #19
 8002396:	bf5e      	ittt	pl
 8002398:	6c1a      	ldrpl	r2, [r3, #64]	; 0x40
 800239a:	f042 0201 	orrpl.w	r2, r2, #1
 800239e:	641a      	strpl	r2, [r3, #64]	; 0x40
 80023a0:	4618      	mov	r0, r3
 80023a2:	f7ff fab3 	bl	800190c <HAL_ADC_ConvCpltCallback>
 80023a6:	bd10      	pop	{r4, pc}
 80023a8:	06d2      	lsls	r2, r2, #27
 80023aa:	d503      	bpl.n	80023b4 <ADC_DMAConvCplt+0x62>
 80023ac:	4618      	mov	r0, r3
 80023ae:	f7ff ff30 	bl	8002212 <HAL_ADC_ErrorCallback>
 80023b2:	e7f8      	b.n	80023a6 <ADC_DMAConvCplt+0x54>
 80023b4:	6b9b      	ldr	r3, [r3, #56]	; 0x38
 80023b6:	e8bd 4010 	ldmia.w	sp!, {r4, lr}
 80023ba:	6cdb      	ldr	r3, [r3, #76]	; 0x4c
 80023bc:	4718      	bx	r3
	...

080023c0 <HAL_ADC_ConfigChannel>:
 80023c0:	b5f7      	push	{r0, r1, r2, r4, r5, r6, r7, lr}
 80023c2:	2300      	movs	r3, #0
 80023c4:	9301      	str	r3, [sp, #4]
 80023c6:	f890 303c 	ldrb.w	r3, [r0, #60]	; 0x3c
 80023ca:	2b01      	cmp	r3, #1
 80023cc:	d069      	beq.n	80024a2 <HAL_ADC_ConfigChannel+0xe2>
 80023ce:	2301      	movs	r3, #1
 80023d0:	f880 303c 	strb.w	r3, [r0, #60]	; 0x3c
 80023d4:	680d      	ldr	r5, [r1, #0]
 80023d6:	6803      	ldr	r3, [r0, #0]
 80023d8:	688e      	ldr	r6, [r1, #8]
 80023da:	2d09      	cmp	r5, #9
 80023dc:	b2ac      	uxth	r4, r5
 80023de:	d934      	bls.n	800244a <HAL_ADC_ConfigChannel+0x8a>
 80023e0:	eb04 0244 	add.w	r2, r4, r4, lsl #1
 80023e4:	68df      	ldr	r7, [r3, #12]
 80023e6:	3a1e      	subs	r2, #30
 80023e8:	f04f 0c07 	mov.w	ip, #7
 80023ec:	fa0c fc02 	lsl.w	ip, ip, r2
 80023f0:	ea27 070c 	bic.w	r7, r7, ip
 80023f4:	60df      	str	r7, [r3, #12]
 80023f6:	68df      	ldr	r7, [r3, #12]
 80023f8:	fa06 f202 	lsl.w	r2, r6, r2
 80023fc:	433a      	orrs	r2, r7
 80023fe:	60da      	str	r2, [r3, #12]
 8002400:	6849      	ldr	r1, [r1, #4]
 8002402:	2906      	cmp	r1, #6
 8002404:	eb01 0281 	add.w	r2, r1, r1, lsl #2
 8002408:	d82f      	bhi.n	800246a <HAL_ADC_ConfigChannel+0xaa>
 800240a:	6b59      	ldr	r1, [r3, #52]	; 0x34
 800240c:	3a05      	subs	r2, #5
 800240e:	261f      	movs	r6, #31
 8002410:	4096      	lsls	r6, r2
 8002412:	ea21 0106 	bic.w	r1, r1, r6
 8002416:	6359      	str	r1, [r3, #52]	; 0x34
 8002418:	6b59      	ldr	r1, [r3, #52]	; 0x34
 800241a:	fa04 f202 	lsl.w	r2, r4, r2
 800241e:	430a      	orrs	r2, r1
 8002420:	635a      	str	r2, [r3, #52]	; 0x34
 8002422:	4a30      	ldr	r2, [pc, #192]	; (80024e4 <HAL_ADC_ConfigChannel+0x124>)
 8002424:	4293      	cmp	r3, r2
 8002426:	d10a      	bne.n	800243e <HAL_ADC_ConfigChannel+0x7e>
 8002428:	2d12      	cmp	r5, #18
 800242a:	d13c      	bne.n	80024a6 <HAL_ADC_ConfigChannel+0xe6>
 800242c:	4b2e      	ldr	r3, [pc, #184]	; (80024e8 <HAL_ADC_ConfigChannel+0x128>)
 800242e:	685a      	ldr	r2, [r3, #4]
 8002430:	f422 0200 	bic.w	r2, r2, #8388608	; 0x800000
 8002434:	605a      	str	r2, [r3, #4]
 8002436:	685a      	ldr	r2, [r3, #4]
 8002438:	f442 0280 	orr.w	r2, r2, #4194304	; 0x400000
 800243c:	605a      	str	r2, [r3, #4]
 800243e:	2300      	movs	r3, #0
 8002440:	f880 303c 	strb.w	r3, [r0, #60]	; 0x3c
 8002444:	4618      	mov	r0, r3
 8002446:	b003      	add	sp, #12
 8002448:	bdf0      	pop	{r4, r5, r6, r7, pc}
 800244a:	691f      	ldr	r7, [r3, #16]
 800244c:	eb05 0245 	add.w	r2, r5, r5, lsl #1
 8002450:	f04f 0c07 	mov.w	ip, #7
 8002454:	fa0c fc02 	lsl.w	ip, ip, r2
 8002458:	ea27 070c 	bic.w	r7, r7, ip
 800245c:	611f      	str	r7, [r3, #16]
 800245e:	691f      	ldr	r7, [r3, #16]
 8002460:	fa06 f202 	lsl.w	r2, r6, r2
 8002464:	433a      	orrs	r2, r7
 8002466:	611a      	str	r2, [r3, #16]
 8002468:	e7ca      	b.n	8002400 <HAL_ADC_ConfigChannel+0x40>
 800246a:	290c      	cmp	r1, #12
 800246c:	f04f 011f 	mov.w	r1, #31
 8002470:	d80b      	bhi.n	800248a <HAL_ADC_ConfigChannel+0xca>
 8002472:	6b1e      	ldr	r6, [r3, #48]	; 0x30
 8002474:	3a23      	subs	r2, #35	; 0x23
 8002476:	4091      	lsls	r1, r2
 8002478:	ea26 0101 	bic.w	r1, r6, r1
 800247c:	6319      	str	r1, [r3, #48]	; 0x30
 800247e:	6b19      	ldr	r1, [r3, #48]	; 0x30
 8002480:	fa04 f202 	lsl.w	r2, r4, r2
 8002484:	430a      	orrs	r2, r1
 8002486:	631a      	str	r2, [r3, #48]	; 0x30
 8002488:	e7cb      	b.n	8002422 <HAL_ADC_ConfigChannel+0x62>
 800248a:	6ade      	ldr	r6, [r3, #44]	; 0x2c
 800248c:	3a41      	subs	r2, #65	; 0x41
 800248e:	4091      	lsls	r1, r2
 8002490:	ea26 0101 	bic.w	r1, r6, r1
 8002494:	62d9      	str	r1, [r3, #44]	; 0x2c
 8002496:	6ad9      	ldr	r1, [r3, #44]	; 0x2c
 8002498:	fa04 f202 	lsl.w	r2, r4, r2
 800249c:	430a      	orrs	r2, r1
 800249e:	62da      	str	r2, [r3, #44]	; 0x2c
 80024a0:	e7bf      	b.n	8002422 <HAL_ADC_ConfigChannel+0x62>
 80024a2:	2002      	movs	r0, #2
 80024a4:	e7cf      	b.n	8002446 <HAL_ADC_ConfigChannel+0x86>
 80024a6:	4b11      	ldr	r3, [pc, #68]	; (80024ec <HAL_ADC_ConfigChannel+0x12c>)
 80024a8:	429d      	cmp	r5, r3
 80024aa:	d001      	beq.n	80024b0 <HAL_ADC_ConfigChannel+0xf0>
 80024ac:	2d11      	cmp	r5, #17
 80024ae:	d1c6      	bne.n	800243e <HAL_ADC_ConfigChannel+0x7e>
 80024b0:	4b0d      	ldr	r3, [pc, #52]	; (80024e8 <HAL_ADC_ConfigChannel+0x128>)
 80024b2:	685a      	ldr	r2, [r3, #4]
 80024b4:	f422 0280 	bic.w	r2, r2, #4194304	; 0x400000
 80024b8:	605a      	str	r2, [r3, #4]
 80024ba:	685a      	ldr	r2, [r3, #4]
 80024bc:	f442 0200 	orr.w	r2, r2, #8388608	; 0x800000
 80024c0:	605a      	str	r2, [r3, #4]
 80024c2:	4b0a      	ldr	r3, [pc, #40]	; (80024ec <HAL_ADC_ConfigChannel+0x12c>)
 80024c4:	429d      	cmp	r5, r3
 80024c6:	d1ba      	bne.n	800243e <HAL_ADC_ConfigChannel+0x7e>
 80024c8:	4b09      	ldr	r3, [pc, #36]	; (80024f0 <HAL_ADC_ConfigChannel+0x130>)
 80024ca:	4a0a      	ldr	r2, [pc, #40]	; (80024f4 <HAL_ADC_ConfigChannel+0x134>)
 80024cc:	681b      	ldr	r3, [r3, #0]
 80024ce:	fbb3 f2f2 	udiv	r2, r3, r2
 80024d2:	230a      	movs	r3, #10
 80024d4:	4353      	muls	r3, r2
 80024d6:	9301      	str	r3, [sp, #4]
 80024d8:	9b01      	ldr	r3, [sp, #4]
 80024da:	2b00      	cmp	r3, #0
 80024dc:	d0af      	beq.n	800243e <HAL_ADC_ConfigChannel+0x7e>
 80024de:	9b01      	ldr	r3, [sp, #4]
 80024e0:	3b01      	subs	r3, #1
 80024e2:	e7f8      	b.n	80024d6 <HAL_ADC_ConfigChannel+0x116>
 80024e4:	40012000 	.word	0x40012000
 80024e8:	40012300 	.word	0x40012300
 80024ec:	10000012 	.word	0x10000012
 80024f0:	20000050 	.word	0x20000050
 80024f4:	000f4240 	.word	0x000f4240

080024f8 <HAL_ADCEx_InjectedConvCpltCallback>:
 80024f8:	4770      	bx	lr

080024fa <HAL_CAN_Init>:
 80024fa:	b538      	push	{r3, r4, r5, lr}
 80024fc:	4604      	mov	r4, r0
 80024fe:	2800      	cmp	r0, #0
 8002500:	d06e      	beq.n	80025e0 <HAL_CAN_Init+0xe6>
 8002502:	f890 3020 	ldrb.w	r3, [r0, #32]
 8002506:	b90b      	cbnz	r3, 800250c <HAL_CAN_Init+0x12>
 8002508:	f7fe fde8 	bl	80010dc <HAL_CAN_MspInit>
 800250c:	6822      	ldr	r2, [r4, #0]
 800250e:	6813      	ldr	r3, [r2, #0]
 8002510:	f043 0301 	orr.w	r3, r3, #1
 8002514:	6013      	str	r3, [r2, #0]
 8002516:	f7ff fd0b 	bl	8001f30 <HAL_GetTick>
 800251a:	4605      	mov	r5, r0
 800251c:	6823      	ldr	r3, [r4, #0]
 800251e:	685a      	ldr	r2, [r3, #4]
 8002520:	07d1      	lsls	r1, r2, #31
 8002522:	d551      	bpl.n	80025c8 <HAL_CAN_Init+0xce>
 8002524:	681a      	ldr	r2, [r3, #0]
 8002526:	f022 0202 	bic.w	r2, r2, #2
 800252a:	601a      	str	r2, [r3, #0]
 800252c:	f7ff fd00 	bl	8001f30 <HAL_GetTick>
 8002530:	4605      	mov	r5, r0
 8002532:	6823      	ldr	r3, [r4, #0]
 8002534:	685a      	ldr	r2, [r3, #4]
 8002536:	0792      	lsls	r2, r2, #30
 8002538:	d454      	bmi.n	80025e4 <HAL_CAN_Init+0xea>
 800253a:	7e22      	ldrb	r2, [r4, #24]
 800253c:	2a01      	cmp	r2, #1
 800253e:	681a      	ldr	r2, [r3, #0]
 8002540:	bf0c      	ite	eq
 8002542:	f042 0280 	orreq.w	r2, r2, #128	; 0x80
 8002546:	f022 0280 	bicne.w	r2, r2, #128	; 0x80
 800254a:	601a      	str	r2, [r3, #0]
 800254c:	7e62      	ldrb	r2, [r4, #25]
 800254e:	2a01      	cmp	r2, #1
 8002550:	681a      	ldr	r2, [r3, #0]
 8002552:	bf0c      	ite	eq
 8002554:	f042 0240 	orreq.w	r2, r2, #64	; 0x40
 8002558:	f022 0240 	bicne.w	r2, r2, #64	; 0x40
 800255c:	601a      	str	r2, [r3, #0]
 800255e:	7ea2      	ldrb	r2, [r4, #26]
 8002560:	2a01      	cmp	r2, #1
 8002562:	681a      	ldr	r2, [r3, #0]
 8002564:	bf0c      	ite	eq
 8002566:	f042 0220 	orreq.w	r2, r2, #32
 800256a:	f022 0220 	bicne.w	r2, r2, #32
 800256e:	601a      	str	r2, [r3, #0]
 8002570:	7ee2      	ldrb	r2, [r4, #27]
 8002572:	2a01      	cmp	r2, #1
 8002574:	681a      	ldr	r2, [r3, #0]
 8002576:	bf0c      	ite	eq
 8002578:	f022 0210 	biceq.w	r2, r2, #16
 800257c:	f042 0210 	orrne.w	r2, r2, #16
 8002580:	601a      	str	r2, [r3, #0]
 8002582:	7f22      	ldrb	r2, [r4, #28]
 8002584:	2a01      	cmp	r2, #1
 8002586:	681a      	ldr	r2, [r3, #0]
 8002588:	bf0c      	ite	eq
 800258a:	f042 0208 	orreq.w	r2, r2, #8
 800258e:	f022 0208 	bicne.w	r2, r2, #8
 8002592:	601a      	str	r2, [r3, #0]
 8002594:	7f62      	ldrb	r2, [r4, #29]
 8002596:	2a01      	cmp	r2, #1
 8002598:	681a      	ldr	r2, [r3, #0]
 800259a:	bf0c      	ite	eq
 800259c:	f042 0204 	orreq.w	r2, r2, #4
 80025a0:	f022 0204 	bicne.w	r2, r2, #4
 80025a4:	601a      	str	r2, [r3, #0]
 80025a6:	e9d4 2102 	ldrd	r2, r1, [r4, #8]
 80025aa:	430a      	orrs	r2, r1
 80025ac:	6921      	ldr	r1, [r4, #16]
 80025ae:	430a      	orrs	r2, r1
 80025b0:	6961      	ldr	r1, [r4, #20]
 80025b2:	430a      	orrs	r2, r1
 80025b4:	6861      	ldr	r1, [r4, #4]
 80025b6:	3901      	subs	r1, #1
 80025b8:	430a      	orrs	r2, r1
 80025ba:	61da      	str	r2, [r3, #28]
 80025bc:	2000      	movs	r0, #0
 80025be:	2301      	movs	r3, #1
 80025c0:	6260      	str	r0, [r4, #36]	; 0x24
 80025c2:	f884 3020 	strb.w	r3, [r4, #32]
 80025c6:	bd38      	pop	{r3, r4, r5, pc}
 80025c8:	f7ff fcb2 	bl	8001f30 <HAL_GetTick>
 80025cc:	1b40      	subs	r0, r0, r5
 80025ce:	280a      	cmp	r0, #10
 80025d0:	d9a4      	bls.n	800251c <HAL_CAN_Init+0x22>
 80025d2:	6a63      	ldr	r3, [r4, #36]	; 0x24
 80025d4:	f443 3300 	orr.w	r3, r3, #131072	; 0x20000
 80025d8:	6263      	str	r3, [r4, #36]	; 0x24
 80025da:	2305      	movs	r3, #5
 80025dc:	f884 3020 	strb.w	r3, [r4, #32]
 80025e0:	2001      	movs	r0, #1
 80025e2:	e7f0      	b.n	80025c6 <HAL_CAN_Init+0xcc>
 80025e4:	f7ff fca4 	bl	8001f30 <HAL_GetTick>
 80025e8:	1b40      	subs	r0, r0, r5
 80025ea:	280a      	cmp	r0, #10
 80025ec:	d9a1      	bls.n	8002532 <HAL_CAN_Init+0x38>
 80025ee:	e7f0      	b.n	80025d2 <HAL_CAN_Init+0xd8>

080025f0 <HAL_CAN_ConfigFilter>:
 80025f0:	b530      	push	{r4, r5, lr}
 80025f2:	f890 3020 	ldrb.w	r3, [r0, #32]
 80025f6:	3b01      	subs	r3, #1
 80025f8:	2b01      	cmp	r3, #1
 80025fa:	d878      	bhi.n	80026ee <HAL_CAN_ConfigFilter+0xfe>
 80025fc:	4b3f      	ldr	r3, [pc, #252]	; (80026fc <HAL_CAN_ConfigFilter+0x10c>)
 80025fe:	f8d3 2200 	ldr.w	r2, [r3, #512]	; 0x200
 8002602:	f042 0201 	orr.w	r2, r2, #1
 8002606:	f8c3 2200 	str.w	r2, [r3, #512]	; 0x200
 800260a:	f8d3 2200 	ldr.w	r2, [r3, #512]	; 0x200
 800260e:	f422 527c 	bic.w	r2, r2, #16128	; 0x3f00
 8002612:	f8c3 2200 	str.w	r2, [r3, #512]	; 0x200
 8002616:	f8d3 2200 	ldr.w	r2, [r3, #512]	; 0x200
 800261a:	6a48      	ldr	r0, [r1, #36]	; 0x24
 800261c:	ea42 2200 	orr.w	r2, r2, r0, lsl #8
 8002620:	f8c3 2200 	str.w	r2, [r3, #512]	; 0x200
 8002624:	694a      	ldr	r2, [r1, #20]
 8002626:	f8d3 521c 	ldr.w	r5, [r3, #540]	; 0x21c
 800262a:	2401      	movs	r4, #1
 800262c:	f002 001f 	and.w	r0, r2, #31
 8002630:	fa04 f000 	lsl.w	r0, r4, r0
 8002634:	ea25 0500 	bic.w	r5, r5, r0
 8002638:	f8c3 521c 	str.w	r5, [r3, #540]	; 0x21c
 800263c:	69cd      	ldr	r5, [r1, #28]
 800263e:	43c4      	mvns	r4, r0
 8002640:	2d00      	cmp	r5, #0
 8002642:	d135      	bne.n	80026b0 <HAL_CAN_ConfigFilter+0xc0>
 8002644:	f8d3 520c 	ldr.w	r5, [r3, #524]	; 0x20c
 8002648:	4025      	ands	r5, r4
 800264a:	f8c3 520c 	str.w	r5, [r3, #524]	; 0x20c
 800264e:	68cb      	ldr	r3, [r1, #12]
 8002650:	888d      	ldrh	r5, [r1, #4]
 8002652:	ea45 4503 	orr.w	r5, r5, r3, lsl #16
 8002656:	00d3      	lsls	r3, r2, #3
 8002658:	f103 4380 	add.w	r3, r3, #1073741824	; 0x40000000
 800265c:	f503 43c8 	add.w	r3, r3, #25600	; 0x6400
 8002660:	880a      	ldrh	r2, [r1, #0]
 8002662:	f8c3 5240 	str.w	r5, [r3, #576]	; 0x240
 8002666:	688d      	ldr	r5, [r1, #8]
 8002668:	ea42 4205 	orr.w	r2, r2, r5, lsl #16
 800266c:	f8c3 2244 	str.w	r2, [r3, #580]	; 0x244
 8002670:	698a      	ldr	r2, [r1, #24]
 8002672:	4b22      	ldr	r3, [pc, #136]	; (80026fc <HAL_CAN_ConfigFilter+0x10c>)
 8002674:	bb8a      	cbnz	r2, 80026da <HAL_CAN_ConfigFilter+0xea>
 8002676:	f8d3 2204 	ldr.w	r2, [r3, #516]	; 0x204
 800267a:	4022      	ands	r2, r4
 800267c:	f8c3 2204 	str.w	r2, [r3, #516]	; 0x204
 8002680:	690a      	ldr	r2, [r1, #16]
 8002682:	bb72      	cbnz	r2, 80026e2 <HAL_CAN_ConfigFilter+0xf2>
 8002684:	f8d3 2214 	ldr.w	r2, [r3, #532]	; 0x214
 8002688:	4014      	ands	r4, r2
 800268a:	f8c3 4214 	str.w	r4, [r3, #532]	; 0x214
 800268e:	6a0b      	ldr	r3, [r1, #32]
 8002690:	2b01      	cmp	r3, #1
 8002692:	4b1a      	ldr	r3, [pc, #104]	; (80026fc <HAL_CAN_ConfigFilter+0x10c>)
 8002694:	bf02      	ittt	eq
 8002696:	f8d3 221c 	ldreq.w	r2, [r3, #540]	; 0x21c
 800269a:	4310      	orreq	r0, r2
 800269c:	f8c3 021c 	streq.w	r0, [r3, #540]	; 0x21c
 80026a0:	f8d3 2200 	ldr.w	r2, [r3, #512]	; 0x200
 80026a4:	f022 0201 	bic.w	r2, r2, #1
 80026a8:	f8c3 2200 	str.w	r2, [r3, #512]	; 0x200
 80026ac:	2000      	movs	r0, #0
 80026ae:	bd30      	pop	{r4, r5, pc}
 80026b0:	2d01      	cmp	r5, #1
 80026b2:	d1dd      	bne.n	8002670 <HAL_CAN_ConfigFilter+0x80>
 80026b4:	f8d3 520c 	ldr.w	r5, [r3, #524]	; 0x20c
 80026b8:	4305      	orrs	r5, r0
 80026ba:	f8c3 520c 	str.w	r5, [r3, #524]	; 0x20c
 80026be:	680b      	ldr	r3, [r1, #0]
 80026c0:	888d      	ldrh	r5, [r1, #4]
 80026c2:	ea45 4503 	orr.w	r5, r5, r3, lsl #16
 80026c6:	00d3      	lsls	r3, r2, #3
 80026c8:	f103 4380 	add.w	r3, r3, #1073741824	; 0x40000000
 80026cc:	f503 43c8 	add.w	r3, r3, #25600	; 0x6400
 80026d0:	898a      	ldrh	r2, [r1, #12]
 80026d2:	f8c3 5240 	str.w	r5, [r3, #576]	; 0x240
 80026d6:	688d      	ldr	r5, [r1, #8]
 80026d8:	e7c6      	b.n	8002668 <HAL_CAN_ConfigFilter+0x78>
 80026da:	f8d3 2204 	ldr.w	r2, [r3, #516]	; 0x204
 80026de:	4302      	orrs	r2, r0
 80026e0:	e7cc      	b.n	800267c <HAL_CAN_ConfigFilter+0x8c>
 80026e2:	f8d3 2214 	ldr.w	r2, [r3, #532]	; 0x214
 80026e6:	4302      	orrs	r2, r0
 80026e8:	f8c3 2214 	str.w	r2, [r3, #532]	; 0x214
 80026ec:	e7cf      	b.n	800268e <HAL_CAN_ConfigFilter+0x9e>
 80026ee:	6a43      	ldr	r3, [r0, #36]	; 0x24
 80026f0:	f443 2380 	orr.w	r3, r3, #262144	; 0x40000
 80026f4:	6243      	str	r3, [r0, #36]	; 0x24
 80026f6:	2001      	movs	r0, #1
 80026f8:	e7d9      	b.n	80026ae <HAL_CAN_ConfigFilter+0xbe>
 80026fa:	bf00      	nop
 80026fc:	40006400 	.word	0x40006400

08002700 <HAL_CAN_Start>:
 8002700:	b570      	push	{r4, r5, r6, lr}
 8002702:	f890 3020 	ldrb.w	r3, [r0, #32]
 8002706:	2b01      	cmp	r3, #1
 8002708:	4604      	mov	r4, r0
 800270a:	b2dd      	uxtb	r5, r3
 800270c:	d120      	bne.n	8002750 <HAL_CAN_Start+0x50>
 800270e:	6802      	ldr	r2, [r0, #0]
 8002710:	2302      	movs	r3, #2
 8002712:	f880 3020 	strb.w	r3, [r0, #32]
 8002716:	6813      	ldr	r3, [r2, #0]
 8002718:	f023 0301 	bic.w	r3, r3, #1
 800271c:	6013      	str	r3, [r2, #0]
 800271e:	f7ff fc07 	bl	8001f30 <HAL_GetTick>
 8002722:	4606      	mov	r6, r0
 8002724:	6823      	ldr	r3, [r4, #0]
 8002726:	685b      	ldr	r3, [r3, #4]
 8002728:	f013 0301 	ands.w	r3, r3, #1
 800272c:	d102      	bne.n	8002734 <HAL_CAN_Start+0x34>
 800272e:	6263      	str	r3, [r4, #36]	; 0x24
 8002730:	461d      	mov	r5, r3
 8002732:	e00b      	b.n	800274c <HAL_CAN_Start+0x4c>
 8002734:	f7ff fbfc 	bl	8001f30 <HAL_GetTick>
 8002738:	1b80      	subs	r0, r0, r6
 800273a:	280a      	cmp	r0, #10
 800273c:	d9f2      	bls.n	8002724 <HAL_CAN_Start+0x24>
 800273e:	6a63      	ldr	r3, [r4, #36]	; 0x24
 8002740:	f443 3300 	orr.w	r3, r3, #131072	; 0x20000
 8002744:	6263      	str	r3, [r4, #36]	; 0x24
 8002746:	2305      	movs	r3, #5
 8002748:	f884 3020 	strb.w	r3, [r4, #32]
 800274c:	4628      	mov	r0, r5
 800274e:	bd70      	pop	{r4, r5, r6, pc}
 8002750:	6a43      	ldr	r3, [r0, #36]	; 0x24
 8002752:	f443 2300 	orr.w	r3, r3, #524288	; 0x80000
 8002756:	6243      	str	r3, [r0, #36]	; 0x24
 8002758:	2501      	movs	r5, #1
 800275a:	e7f7      	b.n	800274c <HAL_CAN_Start+0x4c>

0800275c <HAL_CAN_AddTxMessage>:
 800275c:	b5f0      	push	{r4, r5, r6, r7, lr}
 800275e:	f890 5020 	ldrb.w	r5, [r0, #32]
 8002762:	6806      	ldr	r6, [r0, #0]
 8002764:	3d01      	subs	r5, #1
 8002766:	2d01      	cmp	r5, #1
 8002768:	68b4      	ldr	r4, [r6, #8]
 800276a:	d843      	bhi.n	80027f4 <HAL_CAN_AddTxMessage+0x98>
 800276c:	f014 5fe0 	tst.w	r4, #469762048	; 0x1c000000
 8002770:	d03c      	beq.n	80027ec <HAL_CAN_AddTxMessage+0x90>
 8002772:	f3c4 6401 	ubfx	r4, r4, #24, #2
 8002776:	2c03      	cmp	r4, #3
 8002778:	f04f 0501 	mov.w	r5, #1
 800277c:	d105      	bne.n	800278a <HAL_CAN_AddTxMessage+0x2e>
 800277e:	6a43      	ldr	r3, [r0, #36]	; 0x24
 8002780:	f443 0300 	orr.w	r3, r3, #8388608	; 0x800000
 8002784:	6243      	str	r3, [r0, #36]	; 0x24
 8002786:	2001      	movs	r0, #1
 8002788:	e02a      	b.n	80027e0 <HAL_CAN_AddTxMessage+0x84>
 800278a:	40a5      	lsls	r5, r4
 800278c:	601d      	str	r5, [r3, #0]
 800278e:	e9d1 0702 	ldrd	r0, r7, [r1, #8]
 8002792:	f104 0318 	add.w	r3, r4, #24
 8002796:	bb20      	cbnz	r0, 80027e2 <HAL_CAN_AddTxMessage+0x86>
 8002798:	6808      	ldr	r0, [r1, #0]
 800279a:	ea47 5040 	orr.w	r0, r7, r0, lsl #21
 800279e:	011b      	lsls	r3, r3, #4
 80027a0:	50f0      	str	r0, [r6, r3]
 80027a2:	eb06 1304 	add.w	r3, r6, r4, lsl #4
 80027a6:	690d      	ldr	r5, [r1, #16]
 80027a8:	f8c3 5184 	str.w	r5, [r3, #388]	; 0x184
 80027ac:	7d09      	ldrb	r1, [r1, #20]
 80027ae:	2901      	cmp	r1, #1
 80027b0:	bf08      	it	eq
 80027b2:	f8d3 1184 	ldreq.w	r1, [r3, #388]	; 0x184
 80027b6:	ea4f 1004 	mov.w	r0, r4, lsl #4
 80027ba:	bf04      	itt	eq
 80027bc:	f441 7180 	orreq.w	r1, r1, #256	; 0x100
 80027c0:	f8c3 1184 	streq.w	r1, [r3, #388]	; 0x184
 80027c4:	4406      	add	r6, r0
 80027c6:	6851      	ldr	r1, [r2, #4]
 80027c8:	f8c6 118c 	str.w	r1, [r6, #396]	; 0x18c
 80027cc:	6812      	ldr	r2, [r2, #0]
 80027ce:	f8c6 2188 	str.w	r2, [r6, #392]	; 0x188
 80027d2:	f8d3 2180 	ldr.w	r2, [r3, #384]	; 0x180
 80027d6:	f042 0201 	orr.w	r2, r2, #1
 80027da:	f8c3 2180 	str.w	r2, [r3, #384]	; 0x180
 80027de:	2000      	movs	r0, #0
 80027e0:	bdf0      	pop	{r4, r5, r6, r7, pc}
 80027e2:	684d      	ldr	r5, [r1, #4]
 80027e4:	4338      	orrs	r0, r7
 80027e6:	ea40 00c5 	orr.w	r0, r0, r5, lsl #3
 80027ea:	e7d8      	b.n	800279e <HAL_CAN_AddTxMessage+0x42>
 80027ec:	6a43      	ldr	r3, [r0, #36]	; 0x24
 80027ee:	f443 1300 	orr.w	r3, r3, #2097152	; 0x200000
 80027f2:	e7c7      	b.n	8002784 <HAL_CAN_AddTxMessage+0x28>
 80027f4:	6a43      	ldr	r3, [r0, #36]	; 0x24
 80027f6:	f443 2380 	orr.w	r3, r3, #262144	; 0x40000
 80027fa:	e7c3      	b.n	8002784 <HAL_CAN_AddTxMessage+0x28>

080027fc <HAL_CAN_GetRxMessage>:
 80027fc:	b5f0      	push	{r4, r5, r6, r7, lr}
 80027fe:	f890 4020 	ldrb.w	r4, [r0, #32]
 8002802:	3c01      	subs	r4, #1
 8002804:	2c01      	cmp	r4, #1
 8002806:	d86c      	bhi.n	80028e2 <HAL_CAN_GetRxMessage+0xe6>
 8002808:	6806      	ldr	r6, [r0, #0]
 800280a:	b941      	cbnz	r1, 800281e <HAL_CAN_GetRxMessage+0x22>
 800280c:	68f4      	ldr	r4, [r6, #12]
 800280e:	07a4      	lsls	r4, r4, #30
 8002810:	d107      	bne.n	8002822 <HAL_CAN_GetRxMessage+0x26>
 8002812:	6a43      	ldr	r3, [r0, #36]	; 0x24
 8002814:	f443 1300 	orr.w	r3, r3, #2097152	; 0x200000
 8002818:	6243      	str	r3, [r0, #36]	; 0x24
 800281a:	2001      	movs	r0, #1
 800281c:	e056      	b.n	80028cc <HAL_CAN_GetRxMessage+0xd0>
 800281e:	6934      	ldr	r4, [r6, #16]
 8002820:	e7f5      	b.n	800280e <HAL_CAN_GetRxMessage+0x12>
 8002822:	eb06 1501 	add.w	r5, r6, r1, lsl #4
 8002826:	010c      	lsls	r4, r1, #4
 8002828:	f8d5 71b0 	ldr.w	r7, [r5, #432]	; 0x1b0
 800282c:	f007 0704 	and.w	r7, r7, #4
 8002830:	6097      	str	r7, [r2, #8]
 8002832:	2f00      	cmp	r7, #0
 8002834:	d14b      	bne.n	80028ce <HAL_CAN_GetRxMessage+0xd2>
 8002836:	f8d5 71b0 	ldr.w	r7, [r5, #432]	; 0x1b0
 800283a:	0d7f      	lsrs	r7, r7, #21
 800283c:	6017      	str	r7, [r2, #0]
 800283e:	f8d5 71b0 	ldr.w	r7, [r5, #432]	; 0x1b0
 8002842:	f007 0702 	and.w	r7, r7, #2
 8002846:	60d7      	str	r7, [r2, #12]
 8002848:	f8d5 71b4 	ldr.w	r7, [r5, #436]	; 0x1b4
 800284c:	f007 070f 	and.w	r7, r7, #15
 8002850:	6117      	str	r7, [r2, #16]
 8002852:	f8d5 71b4 	ldr.w	r7, [r5, #436]	; 0x1b4
 8002856:	f8d5 51b4 	ldr.w	r5, [r5, #436]	; 0x1b4
 800285a:	4426      	add	r6, r4
 800285c:	f3c7 2707 	ubfx	r7, r7, #8, #8
 8002860:	0c2d      	lsrs	r5, r5, #16
 8002862:	6197      	str	r7, [r2, #24]
 8002864:	6155      	str	r5, [r2, #20]
 8002866:	f8d6 21b8 	ldr.w	r2, [r6, #440]	; 0x1b8
 800286a:	701a      	strb	r2, [r3, #0]
 800286c:	6802      	ldr	r2, [r0, #0]
 800286e:	4422      	add	r2, r4
 8002870:	f8d2 21b8 	ldr.w	r2, [r2, #440]	; 0x1b8
 8002874:	0a12      	lsrs	r2, r2, #8
 8002876:	705a      	strb	r2, [r3, #1]
 8002878:	6802      	ldr	r2, [r0, #0]
 800287a:	4422      	add	r2, r4
 800287c:	f8d2 21b8 	ldr.w	r2, [r2, #440]	; 0x1b8
 8002880:	0c12      	lsrs	r2, r2, #16
 8002882:	709a      	strb	r2, [r3, #2]
 8002884:	6802      	ldr	r2, [r0, #0]
 8002886:	4422      	add	r2, r4
 8002888:	f8d2 21b8 	ldr.w	r2, [r2, #440]	; 0x1b8
 800288c:	0e12      	lsrs	r2, r2, #24
 800288e:	70da      	strb	r2, [r3, #3]
 8002890:	6802      	ldr	r2, [r0, #0]
 8002892:	4422      	add	r2, r4
 8002894:	f8d2 21bc 	ldr.w	r2, [r2, #444]	; 0x1bc
 8002898:	711a      	strb	r2, [r3, #4]
 800289a:	6802      	ldr	r2, [r0, #0]
 800289c:	4422      	add	r2, r4
 800289e:	f8d2 21bc 	ldr.w	r2, [r2, #444]	; 0x1bc
 80028a2:	0a12      	lsrs	r2, r2, #8
 80028a4:	715a      	strb	r2, [r3, #5]
 80028a6:	6802      	ldr	r2, [r0, #0]
 80028a8:	4422      	add	r2, r4
 80028aa:	f8d2 21bc 	ldr.w	r2, [r2, #444]	; 0x1bc
 80028ae:	0c12      	lsrs	r2, r2, #16
 80028b0:	719a      	strb	r2, [r3, #6]
 80028b2:	6802      	ldr	r2, [r0, #0]
 80028b4:	4414      	add	r4, r2
 80028b6:	f8d4 21bc 	ldr.w	r2, [r4, #444]	; 0x1bc
 80028ba:	0e12      	lsrs	r2, r2, #24
 80028bc:	71da      	strb	r2, [r3, #7]
 80028be:	6803      	ldr	r3, [r0, #0]
 80028c0:	b951      	cbnz	r1, 80028d8 <HAL_CAN_GetRxMessage+0xdc>
 80028c2:	68da      	ldr	r2, [r3, #12]
 80028c4:	f042 0220 	orr.w	r2, r2, #32
 80028c8:	60da      	str	r2, [r3, #12]
 80028ca:	2000      	movs	r0, #0
 80028cc:	bdf0      	pop	{r4, r5, r6, r7, pc}
 80028ce:	f8d5 71b0 	ldr.w	r7, [r5, #432]	; 0x1b0
 80028d2:	08ff      	lsrs	r7, r7, #3
 80028d4:	6057      	str	r7, [r2, #4]
 80028d6:	e7b2      	b.n	800283e <HAL_CAN_GetRxMessage+0x42>
 80028d8:	691a      	ldr	r2, [r3, #16]
 80028da:	f042 0220 	orr.w	r2, r2, #32
 80028de:	611a      	str	r2, [r3, #16]
 80028e0:	e7f3      	b.n	80028ca <HAL_CAN_GetRxMessage+0xce>
 80028e2:	6a43      	ldr	r3, [r0, #36]	; 0x24
 80028e4:	f443 2380 	orr.w	r3, r3, #262144	; 0x40000
 80028e8:	e796      	b.n	8002818 <HAL_CAN_GetRxMessage+0x1c>

080028ea <HAL_CAN_ActivateNotification>:
 80028ea:	f890 3020 	ldrb.w	r3, [r0, #32]
 80028ee:	3b01      	subs	r3, #1
 80028f0:	2b01      	cmp	r3, #1
 80028f2:	d805      	bhi.n	8002900 <HAL_CAN_ActivateNotification+0x16>
 80028f4:	6802      	ldr	r2, [r0, #0]
 80028f6:	6953      	ldr	r3, [r2, #20]
 80028f8:	4319      	orrs	r1, r3
 80028fa:	6151      	str	r1, [r2, #20]
 80028fc:	2000      	movs	r0, #0
 80028fe:	4770      	bx	lr
 8002900:	6a43      	ldr	r3, [r0, #36]	; 0x24
 8002902:	f443 2380 	orr.w	r3, r3, #262144	; 0x40000
 8002906:	6243      	str	r3, [r0, #36]	; 0x24
 8002908:	2001      	movs	r0, #1
 800290a:	4770      	bx	lr

0800290c <HAL_CAN_TxMailbox0CompleteCallback>:
 800290c:	4770      	bx	lr

0800290e <HAL_CAN_TxMailbox1CompleteCallback>:
 800290e:	4770      	bx	lr

08002910 <HAL_CAN_TxMailbox2CompleteCallback>:
 8002910:	4770      	bx	lr

08002912 <HAL_CAN_TxMailbox0AbortCallback>:
 8002912:	4770      	bx	lr

08002914 <HAL_CAN_TxMailbox1AbortCallback>:
 8002914:	4770      	bx	lr

08002916 <HAL_CAN_TxMailbox2AbortCallback>:
 8002916:	4770      	bx	lr

08002918 <HAL_CAN_RxFifo0FullCallback>:
 8002918:	4770      	bx	lr

0800291a <HAL_CAN_RxFifo1MsgPendingCallback>:
 800291a:	4770      	bx	lr

0800291c <HAL_CAN_RxFifo1FullCallback>:
 800291c:	4770      	bx	lr

0800291e <HAL_CAN_SleepCallback>:
 800291e:	4770      	bx	lr

08002920 <HAL_CAN_WakeUpFromRxMsgCallback>:
 8002920:	4770      	bx	lr

08002922 <HAL_CAN_ErrorCallback>:
 8002922:	4770      	bx	lr

08002924 <HAL_CAN_IRQHandler>:
 8002924:	e92d 4ff8 	stmdb	sp!, {r3, r4, r5, r6, r7, r8, r9, sl, fp, lr}
 8002928:	6803      	ldr	r3, [r0, #0]
 800292a:	695e      	ldr	r6, [r3, #20]
 800292c:	f8d3 9004 	ldr.w	r9, [r3, #4]
 8002930:	689f      	ldr	r7, [r3, #8]
 8002932:	f8d3 b00c 	ldr.w	fp, [r3, #12]
 8002936:	f8d3 a010 	ldr.w	sl, [r3, #16]
 800293a:	f8d3 8018 	ldr.w	r8, [r3, #24]
 800293e:	f016 0401 	ands.w	r4, r6, #1
 8002942:	4605      	mov	r5, r0
 8002944:	d022      	beq.n	800298c <HAL_CAN_IRQHandler+0x68>
 8002946:	f017 0401 	ands.w	r4, r7, #1
 800294a:	d007      	beq.n	800295c <HAL_CAN_IRQHandler+0x38>
 800294c:	2201      	movs	r2, #1
 800294e:	07b9      	lsls	r1, r7, #30
 8002950:	609a      	str	r2, [r3, #8]
 8002952:	f140 80a5 	bpl.w	8002aa0 <HAL_CAN_IRQHandler+0x17c>
 8002956:	f7ff ffd9 	bl	800290c <HAL_CAN_TxMailbox0CompleteCallback>
 800295a:	2400      	movs	r4, #0
 800295c:	05fb      	lsls	r3, r7, #23
 800295e:	d509      	bpl.n	8002974 <HAL_CAN_IRQHandler+0x50>
 8002960:	682b      	ldr	r3, [r5, #0]
 8002962:	f44f 7280 	mov.w	r2, #256	; 0x100
 8002966:	05b8      	lsls	r0, r7, #22
 8002968:	609a      	str	r2, [r3, #8]
 800296a:	f140 80a7 	bpl.w	8002abc <HAL_CAN_IRQHandler+0x198>
 800296e:	4628      	mov	r0, r5
 8002970:	f7ff ffcd 	bl	800290e <HAL_CAN_TxMailbox1CompleteCallback>
 8002974:	03fb      	lsls	r3, r7, #15
 8002976:	d509      	bpl.n	800298c <HAL_CAN_IRQHandler+0x68>
 8002978:	682b      	ldr	r3, [r5, #0]
 800297a:	f44f 3280 	mov.w	r2, #65536	; 0x10000
 800297e:	03b8      	lsls	r0, r7, #14
 8002980:	609a      	str	r2, [r3, #8]
 8002982:	f140 80a9 	bpl.w	8002ad8 <HAL_CAN_IRQHandler+0x1b4>
 8002986:	4628      	mov	r0, r5
 8002988:	f7ff ffc2 	bl	8002910 <HAL_CAN_TxMailbox2CompleteCallback>
 800298c:	0733      	lsls	r3, r6, #28
 800298e:	d507      	bpl.n	80029a0 <HAL_CAN_IRQHandler+0x7c>
 8002990:	f01b 0f10 	tst.w	fp, #16
 8002994:	bf1f      	itttt	ne
 8002996:	682b      	ldrne	r3, [r5, #0]
 8002998:	2210      	movne	r2, #16
 800299a:	f444 7400 	orrne.w	r4, r4, #512	; 0x200
 800299e:	60da      	strne	r2, [r3, #12]
 80029a0:	0777      	lsls	r7, r6, #29
 80029a2:	d508      	bpl.n	80029b6 <HAL_CAN_IRQHandler+0x92>
 80029a4:	f01b 0f08 	tst.w	fp, #8
 80029a8:	d005      	beq.n	80029b6 <HAL_CAN_IRQHandler+0x92>
 80029aa:	682b      	ldr	r3, [r5, #0]
 80029ac:	2208      	movs	r2, #8
 80029ae:	60da      	str	r2, [r3, #12]
 80029b0:	4628      	mov	r0, r5
 80029b2:	f7ff ffb1 	bl	8002918 <HAL_CAN_RxFifo0FullCallback>
 80029b6:	07b0      	lsls	r0, r6, #30
 80029b8:	d506      	bpl.n	80029c8 <HAL_CAN_IRQHandler+0xa4>
 80029ba:	682b      	ldr	r3, [r5, #0]
 80029bc:	68db      	ldr	r3, [r3, #12]
 80029be:	0799      	lsls	r1, r3, #30
 80029c0:	d002      	beq.n	80029c8 <HAL_CAN_IRQHandler+0xa4>
 80029c2:	4628      	mov	r0, r5
 80029c4:	f7fe fbee 	bl	80011a4 <HAL_CAN_RxFifo0MsgPendingCallback>
 80029c8:	0672      	lsls	r2, r6, #25
 80029ca:	d507      	bpl.n	80029dc <HAL_CAN_IRQHandler+0xb8>
 80029cc:	f01a 0f10 	tst.w	sl, #16
 80029d0:	bf1f      	itttt	ne
 80029d2:	682b      	ldrne	r3, [r5, #0]
 80029d4:	2210      	movne	r2, #16
 80029d6:	f444 6480 	orrne.w	r4, r4, #1024	; 0x400
 80029da:	611a      	strne	r2, [r3, #16]
 80029dc:	06b3      	lsls	r3, r6, #26
 80029de:	d508      	bpl.n	80029f2 <HAL_CAN_IRQHandler+0xce>
 80029e0:	f01a 0f08 	tst.w	sl, #8
 80029e4:	d005      	beq.n	80029f2 <HAL_CAN_IRQHandler+0xce>
 80029e6:	682b      	ldr	r3, [r5, #0]
 80029e8:	2208      	movs	r2, #8
 80029ea:	611a      	str	r2, [r3, #16]
 80029ec:	4628      	mov	r0, r5
 80029ee:	f7ff ff95 	bl	800291c <HAL_CAN_RxFifo1FullCallback>
 80029f2:	06f7      	lsls	r7, r6, #27
 80029f4:	d506      	bpl.n	8002a04 <HAL_CAN_IRQHandler+0xe0>
 80029f6:	682b      	ldr	r3, [r5, #0]
 80029f8:	691b      	ldr	r3, [r3, #16]
 80029fa:	0798      	lsls	r0, r3, #30
 80029fc:	d002      	beq.n	8002a04 <HAL_CAN_IRQHandler+0xe0>
 80029fe:	4628      	mov	r0, r5
 8002a00:	f7ff ff8b 	bl	800291a <HAL_CAN_RxFifo1MsgPendingCallback>
 8002a04:	03b1      	lsls	r1, r6, #14
 8002a06:	d508      	bpl.n	8002a1a <HAL_CAN_IRQHandler+0xf6>
 8002a08:	f019 0f10 	tst.w	r9, #16
 8002a0c:	d005      	beq.n	8002a1a <HAL_CAN_IRQHandler+0xf6>
 8002a0e:	682b      	ldr	r3, [r5, #0]
 8002a10:	2210      	movs	r2, #16
 8002a12:	605a      	str	r2, [r3, #4]
 8002a14:	4628      	mov	r0, r5
 8002a16:	f7ff ff82 	bl	800291e <HAL_CAN_SleepCallback>
 8002a1a:	03f2      	lsls	r2, r6, #15
 8002a1c:	d508      	bpl.n	8002a30 <HAL_CAN_IRQHandler+0x10c>
 8002a1e:	f019 0f08 	tst.w	r9, #8
 8002a22:	d005      	beq.n	8002a30 <HAL_CAN_IRQHandler+0x10c>
 8002a24:	682b      	ldr	r3, [r5, #0]
 8002a26:	2208      	movs	r2, #8
 8002a28:	605a      	str	r2, [r3, #4]
 8002a2a:	4628      	mov	r0, r5
 8002a2c:	f7ff ff78 	bl	8002920 <HAL_CAN_WakeUpFromRxMsgCallback>
 8002a30:	0433      	lsls	r3, r6, #16
 8002a32:	d52c      	bpl.n	8002a8e <HAL_CAN_IRQHandler+0x16a>
 8002a34:	f019 0f04 	tst.w	r9, #4
 8002a38:	682a      	ldr	r2, [r5, #0]
 8002a3a:	d026      	beq.n	8002a8a <HAL_CAN_IRQHandler+0x166>
 8002a3c:	05f7      	lsls	r7, r6, #23
 8002a3e:	d504      	bpl.n	8002a4a <HAL_CAN_IRQHandler+0x126>
 8002a40:	f018 0f01 	tst.w	r8, #1
 8002a44:	bf18      	it	ne
 8002a46:	f044 0401 	orrne.w	r4, r4, #1
 8002a4a:	05b0      	lsls	r0, r6, #22
 8002a4c:	d504      	bpl.n	8002a58 <HAL_CAN_IRQHandler+0x134>
 8002a4e:	f018 0f02 	tst.w	r8, #2
 8002a52:	bf18      	it	ne
 8002a54:	f044 0402 	orrne.w	r4, r4, #2
 8002a58:	0571      	lsls	r1, r6, #21
 8002a5a:	d504      	bpl.n	8002a66 <HAL_CAN_IRQHandler+0x142>
 8002a5c:	f018 0f04 	tst.w	r8, #4
 8002a60:	bf18      	it	ne
 8002a62:	f044 0404 	orrne.w	r4, r4, #4
 8002a66:	0533      	lsls	r3, r6, #20
 8002a68:	d50f      	bpl.n	8002a8a <HAL_CAN_IRQHandler+0x166>
 8002a6a:	f018 0370 	ands.w	r3, r8, #112	; 0x70
 8002a6e:	d00c      	beq.n	8002a8a <HAL_CAN_IRQHandler+0x166>
 8002a70:	2b40      	cmp	r3, #64	; 0x40
 8002a72:	d04f      	beq.n	8002b14 <HAL_CAN_IRQHandler+0x1f0>
 8002a74:	d83e      	bhi.n	8002af4 <HAL_CAN_IRQHandler+0x1d0>
 8002a76:	2b20      	cmp	r3, #32
 8002a78:	d046      	beq.n	8002b08 <HAL_CAN_IRQHandler+0x1e4>
 8002a7a:	2b30      	cmp	r3, #48	; 0x30
 8002a7c:	d047      	beq.n	8002b0e <HAL_CAN_IRQHandler+0x1ea>
 8002a7e:	2b10      	cmp	r3, #16
 8002a80:	d03f      	beq.n	8002b02 <HAL_CAN_IRQHandler+0x1de>
 8002a82:	6993      	ldr	r3, [r2, #24]
 8002a84:	f023 0370 	bic.w	r3, r3, #112	; 0x70
 8002a88:	6193      	str	r3, [r2, #24]
 8002a8a:	2304      	movs	r3, #4
 8002a8c:	6053      	str	r3, [r2, #4]
 8002a8e:	b12c      	cbz	r4, 8002a9c <HAL_CAN_IRQHandler+0x178>
 8002a90:	6a6b      	ldr	r3, [r5, #36]	; 0x24
 8002a92:	431c      	orrs	r4, r3
 8002a94:	626c      	str	r4, [r5, #36]	; 0x24
 8002a96:	4628      	mov	r0, r5
 8002a98:	f7ff ff43 	bl	8002922 <HAL_CAN_ErrorCallback>
 8002a9c:	e8bd 8ff8 	ldmia.w	sp!, {r3, r4, r5, r6, r7, r8, r9, sl, fp, pc}
 8002aa0:	077a      	lsls	r2, r7, #29
 8002aa2:	d405      	bmi.n	8002ab0 <HAL_CAN_IRQHandler+0x18c>
 8002aa4:	f017 0408 	ands.w	r4, r7, #8
 8002aa8:	d105      	bne.n	8002ab6 <HAL_CAN_IRQHandler+0x192>
 8002aaa:	f7ff ff32 	bl	8002912 <HAL_CAN_TxMailbox0AbortCallback>
 8002aae:	e755      	b.n	800295c <HAL_CAN_IRQHandler+0x38>
 8002ab0:	f44f 6400 	mov.w	r4, #2048	; 0x800
 8002ab4:	e752      	b.n	800295c <HAL_CAN_IRQHandler+0x38>
 8002ab6:	f44f 5480 	mov.w	r4, #4096	; 0x1000
 8002aba:	e74f      	b.n	800295c <HAL_CAN_IRQHandler+0x38>
 8002abc:	0579      	lsls	r1, r7, #21
 8002abe:	d502      	bpl.n	8002ac6 <HAL_CAN_IRQHandler+0x1a2>
 8002ac0:	f444 5400 	orr.w	r4, r4, #8192	; 0x2000
 8002ac4:	e756      	b.n	8002974 <HAL_CAN_IRQHandler+0x50>
 8002ac6:	053a      	lsls	r2, r7, #20
 8002ac8:	d502      	bpl.n	8002ad0 <HAL_CAN_IRQHandler+0x1ac>
 8002aca:	f444 4480 	orr.w	r4, r4, #16384	; 0x4000
 8002ace:	e751      	b.n	8002974 <HAL_CAN_IRQHandler+0x50>
 8002ad0:	4628      	mov	r0, r5
 8002ad2:	f7ff ff1f 	bl	8002914 <HAL_CAN_TxMailbox1AbortCallback>
 8002ad6:	e74d      	b.n	8002974 <HAL_CAN_IRQHandler+0x50>
 8002ad8:	0379      	lsls	r1, r7, #13
 8002ada:	d502      	bpl.n	8002ae2 <HAL_CAN_IRQHandler+0x1be>
 8002adc:	f444 4400 	orr.w	r4, r4, #32768	; 0x8000
 8002ae0:	e754      	b.n	800298c <HAL_CAN_IRQHandler+0x68>
 8002ae2:	033a      	lsls	r2, r7, #12
 8002ae4:	d502      	bpl.n	8002aec <HAL_CAN_IRQHandler+0x1c8>
 8002ae6:	f444 3480 	orr.w	r4, r4, #65536	; 0x10000
 8002aea:	e74f      	b.n	800298c <HAL_CAN_IRQHandler+0x68>
 8002aec:	4628      	mov	r0, r5
 8002aee:	f7ff ff12 	bl	8002916 <HAL_CAN_TxMailbox2AbortCallback>
 8002af2:	e74b      	b.n	800298c <HAL_CAN_IRQHandler+0x68>
 8002af4:	2b50      	cmp	r3, #80	; 0x50
 8002af6:	d010      	beq.n	8002b1a <HAL_CAN_IRQHandler+0x1f6>
 8002af8:	2b60      	cmp	r3, #96	; 0x60
 8002afa:	d1c2      	bne.n	8002a82 <HAL_CAN_IRQHandler+0x15e>
 8002afc:	f444 7480 	orr.w	r4, r4, #256	; 0x100
 8002b00:	e7bf      	b.n	8002a82 <HAL_CAN_IRQHandler+0x15e>
 8002b02:	f044 0408 	orr.w	r4, r4, #8
 8002b06:	e7bc      	b.n	8002a82 <HAL_CAN_IRQHandler+0x15e>
 8002b08:	f044 0410 	orr.w	r4, r4, #16
 8002b0c:	e7b9      	b.n	8002a82 <HAL_CAN_IRQHandler+0x15e>
 8002b0e:	f044 0420 	orr.w	r4, r4, #32
 8002b12:	e7b6      	b.n	8002a82 <HAL_CAN_IRQHandler+0x15e>
 8002b14:	f044 0440 	orr.w	r4, r4, #64	; 0x40
 8002b18:	e7b3      	b.n	8002a82 <HAL_CAN_IRQHandler+0x15e>
 8002b1a:	f044 0480 	orr.w	r4, r4, #128	; 0x80
 8002b1e:	e7b0      	b.n	8002a82 <HAL_CAN_IRQHandler+0x15e>

08002b20 <HAL_NVIC_SetPriorityGrouping>:
 8002b20:	4907      	ldr	r1, [pc, #28]	; (8002b40 <HAL_NVIC_SetPriorityGrouping+0x20>)
 8002b22:	68ca      	ldr	r2, [r1, #12]
 8002b24:	f422 62e0 	bic.w	r2, r2, #1792	; 0x700
 8002b28:	0203      	lsls	r3, r0, #8
 8002b2a:	0412      	lsls	r2, r2, #16
 8002b2c:	f403 63e0 	and.w	r3, r3, #1792	; 0x700
 8002b30:	0c12      	lsrs	r2, r2, #16
 8002b32:	4313      	orrs	r3, r2
 8002b34:	f043 63bf 	orr.w	r3, r3, #100139008	; 0x5f80000
 8002b38:	f443 3300 	orr.w	r3, r3, #131072	; 0x20000
 8002b3c:	60cb      	str	r3, [r1, #12]
 8002b3e:	4770      	bx	lr
 8002b40:	e000ed00 	.word	0xe000ed00

08002b44 <HAL_NVIC_SetPriority>:
 8002b44:	4b16      	ldr	r3, [pc, #88]	; (8002ba0 <HAL_NVIC_SetPriority+0x5c>)
 8002b46:	b530      	push	{r4, r5, lr}
 8002b48:	68dc      	ldr	r4, [r3, #12]
 8002b4a:	f3c4 2402 	ubfx	r4, r4, #8, #3
 8002b4e:	f1c4 0507 	rsb	r5, r4, #7
 8002b52:	1d23      	adds	r3, r4, #4
 8002b54:	2d04      	cmp	r5, #4
 8002b56:	bf28      	it	cs
 8002b58:	2504      	movcs	r5, #4
 8002b5a:	2b06      	cmp	r3, #6
 8002b5c:	f04f 33ff 	mov.w	r3, #4294967295
 8002b60:	bf8c      	ite	hi
 8002b62:	3c03      	subhi	r4, #3
 8002b64:	2400      	movls	r4, #0
 8002b66:	fa03 f505 	lsl.w	r5, r3, r5
 8002b6a:	ea21 0105 	bic.w	r1, r1, r5
 8002b6e:	40a3      	lsls	r3, r4
 8002b70:	ea22 0203 	bic.w	r2, r2, r3
 8002b74:	40a1      	lsls	r1, r4
 8002b76:	2800      	cmp	r0, #0
 8002b78:	ea41 0302 	orr.w	r3, r1, r2
 8002b7c:	bfac      	ite	ge
 8002b7e:	f100 4060 	addge.w	r0, r0, #3758096384	; 0xe0000000
 8002b82:	4a08      	ldrlt	r2, [pc, #32]	; (8002ba4 <HAL_NVIC_SetPriority+0x60>)
 8002b84:	ea4f 1303 	mov.w	r3, r3, lsl #4
 8002b88:	bfb8      	it	lt
 8002b8a:	f000 000f 	andlt.w	r0, r0, #15
 8002b8e:	b2db      	uxtb	r3, r3
 8002b90:	bfaa      	itet	ge
 8002b92:	f500 4061 	addge.w	r0, r0, #57600	; 0xe100
 8002b96:	5413      	strblt	r3, [r2, r0]
 8002b98:	f880 3300 	strbge.w	r3, [r0, #768]	; 0x300
 8002b9c:	bd30      	pop	{r4, r5, pc}
 8002b9e:	bf00      	nop
 8002ba0:	e000ed00 	.word	0xe000ed00
 8002ba4:	e000ed14 	.word	0xe000ed14

08002ba8 <HAL_NVIC_EnableIRQ>:
 8002ba8:	2800      	cmp	r0, #0
 8002baa:	db08      	blt.n	8002bbe <HAL_NVIC_EnableIRQ+0x16>
 8002bac:	0942      	lsrs	r2, r0, #5
 8002bae:	2301      	movs	r3, #1
 8002bb0:	f000 001f 	and.w	r0, r0, #31
 8002bb4:	fa03 f000 	lsl.w	r0, r3, r0
 8002bb8:	4b01      	ldr	r3, [pc, #4]	; (8002bc0 <HAL_NVIC_EnableIRQ+0x18>)
 8002bba:	f843 0022 	str.w	r0, [r3, r2, lsl #2]
 8002bbe:	4770      	bx	lr
 8002bc0:	e000e100 	.word	0xe000e100

08002bc4 <HAL_SYSTICK_Config>:
 8002bc4:	3801      	subs	r0, #1
 8002bc6:	f1b0 7f80 	cmp.w	r0, #16777216	; 0x1000000
 8002bca:	d20a      	bcs.n	8002be2 <HAL_SYSTICK_Config+0x1e>
 8002bcc:	4b06      	ldr	r3, [pc, #24]	; (8002be8 <HAL_SYSTICK_Config+0x24>)
 8002bce:	4a07      	ldr	r2, [pc, #28]	; (8002bec <HAL_SYSTICK_Config+0x28>)
 8002bd0:	6058      	str	r0, [r3, #4]
 8002bd2:	21f0      	movs	r1, #240	; 0xf0
 8002bd4:	f882 1023 	strb.w	r1, [r2, #35]	; 0x23
 8002bd8:	2000      	movs	r0, #0
 8002bda:	2207      	movs	r2, #7
 8002bdc:	6098      	str	r0, [r3, #8]
 8002bde:	601a      	str	r2, [r3, #0]
 8002be0:	4770      	bx	lr
 8002be2:	2001      	movs	r0, #1
 8002be4:	4770      	bx	lr
 8002be6:	bf00      	nop
 8002be8:	e000e010 	.word	0xe000e010
 8002bec:	e000ed00 	.word	0xe000ed00

08002bf0 <DMA_CalcBaseAndBitshift>:
 8002bf0:	6803      	ldr	r3, [r0, #0]
 8002bf2:	b510      	push	{r4, lr}
 8002bf4:	4c08      	ldr	r4, [pc, #32]	; (8002c18 <DMA_CalcBaseAndBitshift+0x28>)
 8002bf6:	4602      	mov	r2, r0
 8002bf8:	b2d9      	uxtb	r1, r3
 8002bfa:	3910      	subs	r1, #16
 8002bfc:	2018      	movs	r0, #24
 8002bfe:	fbb1 f0f0 	udiv	r0, r1, r0
 8002c02:	5c20      	ldrb	r0, [r4, r0]
 8002c04:	65d0      	str	r0, [r2, #92]	; 0x5c
 8002c06:	f423 707f 	bic.w	r0, r3, #1020	; 0x3fc
 8002c0a:	f020 0003 	bic.w	r0, r0, #3
 8002c0e:	295f      	cmp	r1, #95	; 0x5f
 8002c10:	bf88      	it	hi
 8002c12:	3004      	addhi	r0, #4
 8002c14:	6590      	str	r0, [r2, #88]	; 0x58
 8002c16:	bd10      	pop	{r4, pc}
 8002c18:	08004b74 	.word	0x08004b74

08002c1c <HAL_DMA_Init>:
 8002c1c:	b570      	push	{r4, r5, r6, lr}
 8002c1e:	4604      	mov	r4, r0
 8002c20:	f7ff f986 	bl	8001f30 <HAL_GetTick>
 8002c24:	4605      	mov	r5, r0
 8002c26:	2c00      	cmp	r4, #0
 8002c28:	d073      	beq.n	8002d12 <HAL_DMA_Init+0xf6>
 8002c2a:	2302      	movs	r3, #2
 8002c2c:	f884 3035 	strb.w	r3, [r4, #53]	; 0x35
 8002c30:	6822      	ldr	r2, [r4, #0]
 8002c32:	2300      	movs	r3, #0
 8002c34:	f884 3034 	strb.w	r3, [r4, #52]	; 0x34
 8002c38:	6813      	ldr	r3, [r2, #0]
 8002c3a:	f023 0301 	bic.w	r3, r3, #1
 8002c3e:	6013      	str	r3, [r2, #0]
 8002c40:	6821      	ldr	r1, [r4, #0]
 8002c42:	680b      	ldr	r3, [r1, #0]
 8002c44:	07d8      	lsls	r0, r3, #31
 8002c46:	d42f      	bmi.n	8002ca8 <HAL_DMA_Init+0x8c>
 8002c48:	680b      	ldr	r3, [r1, #0]
 8002c4a:	4d33      	ldr	r5, [pc, #204]	; (8002d18 <HAL_DMA_Init+0xfc>)
 8002c4c:	69a0      	ldr	r0, [r4, #24]
 8002c4e:	401d      	ands	r5, r3
 8002c50:	e9d4 2301 	ldrd	r2, r3, [r4, #4]
 8002c54:	4313      	orrs	r3, r2
 8002c56:	68e2      	ldr	r2, [r4, #12]
 8002c58:	4313      	orrs	r3, r2
 8002c5a:	6922      	ldr	r2, [r4, #16]
 8002c5c:	4313      	orrs	r3, r2
 8002c5e:	6962      	ldr	r2, [r4, #20]
 8002c60:	4313      	orrs	r3, r2
 8002c62:	69e2      	ldr	r2, [r4, #28]
 8002c64:	4303      	orrs	r3, r0
 8002c66:	4313      	orrs	r3, r2
 8002c68:	6a22      	ldr	r2, [r4, #32]
 8002c6a:	4313      	orrs	r3, r2
 8002c6c:	6a62      	ldr	r2, [r4, #36]	; 0x24
 8002c6e:	2a04      	cmp	r2, #4
 8002c70:	ea43 0305 	orr.w	r3, r3, r5
 8002c74:	bf02      	ittt	eq
 8002c76:	e9d4 560b 	ldrdeq	r5, r6, [r4, #44]	; 0x2c
 8002c7a:	4335      	orreq	r5, r6
 8002c7c:	432b      	orreq	r3, r5
 8002c7e:	600b      	str	r3, [r1, #0]
 8002c80:	694b      	ldr	r3, [r1, #20]
 8002c82:	2a04      	cmp	r2, #4
 8002c84:	f023 0307 	bic.w	r3, r3, #7
 8002c88:	ea43 0302 	orr.w	r3, r3, r2
 8002c8c:	d133      	bne.n	8002cf6 <HAL_DMA_Init+0xda>
 8002c8e:	6aa2      	ldr	r2, [r4, #40]	; 0x28
 8002c90:	6ae5      	ldr	r5, [r4, #44]	; 0x2c
 8002c92:	4313      	orrs	r3, r2
 8002c94:	b37d      	cbz	r5, 8002cf6 <HAL_DMA_Init+0xda>
 8002c96:	b990      	cbnz	r0, 8002cbe <HAL_DMA_Init+0xa2>
 8002c98:	2a01      	cmp	r2, #1
 8002c9a:	d021      	beq.n	8002ce0 <HAL_DMA_Init+0xc4>
 8002c9c:	f032 0202 	bics.w	r2, r2, #2
 8002ca0:	d129      	bne.n	8002cf6 <HAL_DMA_Init+0xda>
 8002ca2:	01ea      	lsls	r2, r5, #7
 8002ca4:	d527      	bpl.n	8002cf6 <HAL_DMA_Init+0xda>
 8002ca6:	e01e      	b.n	8002ce6 <HAL_DMA_Init+0xca>
 8002ca8:	f7ff f942 	bl	8001f30 <HAL_GetTick>
 8002cac:	1b40      	subs	r0, r0, r5
 8002cae:	2805      	cmp	r0, #5
 8002cb0:	d9c6      	bls.n	8002c40 <HAL_DMA_Init+0x24>
 8002cb2:	2320      	movs	r3, #32
 8002cb4:	6563      	str	r3, [r4, #84]	; 0x54
 8002cb6:	2003      	movs	r0, #3
 8002cb8:	f884 0035 	strb.w	r0, [r4, #53]	; 0x35
 8002cbc:	bd70      	pop	{r4, r5, r6, pc}
 8002cbe:	f5b0 5f00 	cmp.w	r0, #8192	; 0x2000
 8002cc2:	d114      	bne.n	8002cee <HAL_DMA_Init+0xd2>
 8002cc4:	2a03      	cmp	r2, #3
 8002cc6:	d816      	bhi.n	8002cf6 <HAL_DMA_Init+0xda>
 8002cc8:	a001      	add	r0, pc, #4	; (adr r0, 8002cd0 <HAL_DMA_Init+0xb4>)
 8002cca:	f850 f022 	ldr.w	pc, [r0, r2, lsl #2]
 8002cce:	bf00      	nop
 8002cd0:	08002ce7 	.word	0x08002ce7
 8002cd4:	08002ca3 	.word	0x08002ca3
 8002cd8:	08002ce7 	.word	0x08002ce7
 8002cdc:	08002ce1 	.word	0x08002ce1
 8002ce0:	f1b5 7fc0 	cmp.w	r5, #25165824	; 0x1800000
 8002ce4:	d107      	bne.n	8002cf6 <HAL_DMA_Init+0xda>
 8002ce6:	2340      	movs	r3, #64	; 0x40
 8002ce8:	6563      	str	r3, [r4, #84]	; 0x54
 8002cea:	2001      	movs	r0, #1
 8002cec:	e7e4      	b.n	8002cb8 <HAL_DMA_Init+0x9c>
 8002cee:	2a02      	cmp	r2, #2
 8002cf0:	d9f9      	bls.n	8002ce6 <HAL_DMA_Init+0xca>
 8002cf2:	2a03      	cmp	r2, #3
 8002cf4:	d0d5      	beq.n	8002ca2 <HAL_DMA_Init+0x86>
 8002cf6:	614b      	str	r3, [r1, #20]
 8002cf8:	4620      	mov	r0, r4
 8002cfa:	f7ff ff79 	bl	8002bf0 <DMA_CalcBaseAndBitshift>
 8002cfe:	6de2      	ldr	r2, [r4, #92]	; 0x5c
 8002d00:	233f      	movs	r3, #63	; 0x3f
 8002d02:	4093      	lsls	r3, r2
 8002d04:	6083      	str	r3, [r0, #8]
 8002d06:	2000      	movs	r0, #0
 8002d08:	2301      	movs	r3, #1
 8002d0a:	6560      	str	r0, [r4, #84]	; 0x54
 8002d0c:	f884 3035 	strb.w	r3, [r4, #53]	; 0x35
 8002d10:	e7d4      	b.n	8002cbc <HAL_DMA_Init+0xa0>
 8002d12:	2001      	movs	r0, #1
 8002d14:	e7d2      	b.n	8002cbc <HAL_DMA_Init+0xa0>
 8002d16:	bf00      	nop
 8002d18:	f010803f 	.word	0xf010803f

08002d1c <HAL_DMA_Start_IT>:
 8002d1c:	b570      	push	{r4, r5, r6, lr}
 8002d1e:	f890 4034 	ldrb.w	r4, [r0, #52]	; 0x34
 8002d22:	6d86      	ldr	r6, [r0, #88]	; 0x58
 8002d24:	2c01      	cmp	r4, #1
 8002d26:	d031      	beq.n	8002d8c <HAL_DMA_Start_IT+0x70>
 8002d28:	2401      	movs	r4, #1
 8002d2a:	f880 4034 	strb.w	r4, [r0, #52]	; 0x34
 8002d2e:	f890 4035 	ldrb.w	r4, [r0, #53]	; 0x35
 8002d32:	2c01      	cmp	r4, #1
 8002d34:	f04f 0500 	mov.w	r5, #0
 8002d38:	f04f 0402 	mov.w	r4, #2
 8002d3c:	d124      	bne.n	8002d88 <HAL_DMA_Start_IT+0x6c>
 8002d3e:	f880 4035 	strb.w	r4, [r0, #53]	; 0x35
 8002d42:	6804      	ldr	r4, [r0, #0]
 8002d44:	6545      	str	r5, [r0, #84]	; 0x54
 8002d46:	6825      	ldr	r5, [r4, #0]
 8002d48:	f425 2580 	bic.w	r5, r5, #262144	; 0x40000
 8002d4c:	6025      	str	r5, [r4, #0]
 8002d4e:	6063      	str	r3, [r4, #4]
 8002d50:	6883      	ldr	r3, [r0, #8]
 8002d52:	2b40      	cmp	r3, #64	; 0x40
 8002d54:	bf0e      	itee	eq
 8002d56:	60a2      	streq	r2, [r4, #8]
 8002d58:	60a1      	strne	r1, [r4, #8]
 8002d5a:	60e2      	strne	r2, [r4, #12]
 8002d5c:	6dc2      	ldr	r2, [r0, #92]	; 0x5c
 8002d5e:	bf08      	it	eq
 8002d60:	60e1      	streq	r1, [r4, #12]
 8002d62:	233f      	movs	r3, #63	; 0x3f
 8002d64:	4093      	lsls	r3, r2
 8002d66:	60b3      	str	r3, [r6, #8]
 8002d68:	6823      	ldr	r3, [r4, #0]
 8002d6a:	f043 0316 	orr.w	r3, r3, #22
 8002d6e:	6023      	str	r3, [r4, #0]
 8002d70:	6c03      	ldr	r3, [r0, #64]	; 0x40
 8002d72:	b11b      	cbz	r3, 8002d7c <HAL_DMA_Start_IT+0x60>
 8002d74:	6823      	ldr	r3, [r4, #0]
 8002d76:	f043 0308 	orr.w	r3, r3, #8
 8002d7a:	6023      	str	r3, [r4, #0]
 8002d7c:	6823      	ldr	r3, [r4, #0]
 8002d7e:	f043 0301 	orr.w	r3, r3, #1
 8002d82:	6023      	str	r3, [r4, #0]
 8002d84:	2000      	movs	r0, #0
 8002d86:	bd70      	pop	{r4, r5, r6, pc}
 8002d88:	f880 5034 	strb.w	r5, [r0, #52]	; 0x34
 8002d8c:	2002      	movs	r0, #2
 8002d8e:	e7fa      	b.n	8002d86 <HAL_DMA_Start_IT+0x6a>

08002d90 <HAL_DMA_IRQHandler>:
 8002d90:	b5f7      	push	{r0, r1, r2, r4, r5, r6, r7, lr}
 8002d92:	2300      	movs	r3, #0
 8002d94:	9301      	str	r3, [sp, #4]
 8002d96:	4b5c      	ldr	r3, [pc, #368]	; (8002f08 <HAL_DMA_IRQHandler+0x178>)
 8002d98:	6d85      	ldr	r5, [r0, #88]	; 0x58
 8002d9a:	681f      	ldr	r7, [r3, #0]
 8002d9c:	6dc3      	ldr	r3, [r0, #92]	; 0x5c
 8002d9e:	682e      	ldr	r6, [r5, #0]
 8002da0:	2208      	movs	r2, #8
 8002da2:	409a      	lsls	r2, r3
 8002da4:	4232      	tst	r2, r6
 8002da6:	4604      	mov	r4, r0
 8002da8:	d00c      	beq.n	8002dc4 <HAL_DMA_IRQHandler+0x34>
 8002daa:	6801      	ldr	r1, [r0, #0]
 8002dac:	6808      	ldr	r0, [r1, #0]
 8002dae:	0740      	lsls	r0, r0, #29
 8002db0:	d508      	bpl.n	8002dc4 <HAL_DMA_IRQHandler+0x34>
 8002db2:	6808      	ldr	r0, [r1, #0]
 8002db4:	f020 0004 	bic.w	r0, r0, #4
 8002db8:	6008      	str	r0, [r1, #0]
 8002dba:	60aa      	str	r2, [r5, #8]
 8002dbc:	6d62      	ldr	r2, [r4, #84]	; 0x54
 8002dbe:	f042 0201 	orr.w	r2, r2, #1
 8002dc2:	6562      	str	r2, [r4, #84]	; 0x54
 8002dc4:	2201      	movs	r2, #1
 8002dc6:	409a      	lsls	r2, r3
 8002dc8:	4232      	tst	r2, r6
 8002dca:	d008      	beq.n	8002dde <HAL_DMA_IRQHandler+0x4e>
 8002dcc:	6821      	ldr	r1, [r4, #0]
 8002dce:	6949      	ldr	r1, [r1, #20]
 8002dd0:	0609      	lsls	r1, r1, #24
 8002dd2:	bf41      	itttt	mi
 8002dd4:	60aa      	strmi	r2, [r5, #8]
 8002dd6:	6d62      	ldrmi	r2, [r4, #84]	; 0x54
 8002dd8:	f042 0202 	orrmi.w	r2, r2, #2
 8002ddc:	6562      	strmi	r2, [r4, #84]	; 0x54
 8002dde:	2204      	movs	r2, #4
 8002de0:	409a      	lsls	r2, r3
 8002de2:	4232      	tst	r2, r6
 8002de4:	d008      	beq.n	8002df8 <HAL_DMA_IRQHandler+0x68>
 8002de6:	6821      	ldr	r1, [r4, #0]
 8002de8:	6809      	ldr	r1, [r1, #0]
 8002dea:	0788      	lsls	r0, r1, #30
 8002dec:	bf41      	itttt	mi
 8002dee:	60aa      	strmi	r2, [r5, #8]
 8002df0:	6d62      	ldrmi	r2, [r4, #84]	; 0x54
 8002df2:	f042 0204 	orrmi.w	r2, r2, #4
 8002df6:	6562      	strmi	r2, [r4, #84]	; 0x54
 8002df8:	2210      	movs	r2, #16
 8002dfa:	409a      	lsls	r2, r3
 8002dfc:	4232      	tst	r2, r6
 8002dfe:	d010      	beq.n	8002e22 <HAL_DMA_IRQHandler+0x92>
 8002e00:	6823      	ldr	r3, [r4, #0]
 8002e02:	6819      	ldr	r1, [r3, #0]
 8002e04:	0709      	lsls	r1, r1, #28
 8002e06:	d50c      	bpl.n	8002e22 <HAL_DMA_IRQHandler+0x92>
 8002e08:	60aa      	str	r2, [r5, #8]
 8002e0a:	681a      	ldr	r2, [r3, #0]
 8002e0c:	0350      	lsls	r0, r2, #13
 8002e0e:	d537      	bpl.n	8002e80 <HAL_DMA_IRQHandler+0xf0>
 8002e10:	681b      	ldr	r3, [r3, #0]
 8002e12:	0319      	lsls	r1, r3, #12
 8002e14:	d401      	bmi.n	8002e1a <HAL_DMA_IRQHandler+0x8a>
 8002e16:	6c23      	ldr	r3, [r4, #64]	; 0x40
 8002e18:	e000      	b.n	8002e1c <HAL_DMA_IRQHandler+0x8c>
 8002e1a:	6ca3      	ldr	r3, [r4, #72]	; 0x48
 8002e1c:	b10b      	cbz	r3, 8002e22 <HAL_DMA_IRQHandler+0x92>
 8002e1e:	4620      	mov	r0, r4
 8002e20:	4798      	blx	r3
 8002e22:	6de1      	ldr	r1, [r4, #92]	; 0x5c
 8002e24:	2220      	movs	r2, #32
 8002e26:	408a      	lsls	r2, r1
 8002e28:	4232      	tst	r2, r6
 8002e2a:	d03a      	beq.n	8002ea2 <HAL_DMA_IRQHandler+0x112>
 8002e2c:	6823      	ldr	r3, [r4, #0]
 8002e2e:	6818      	ldr	r0, [r3, #0]
 8002e30:	06c6      	lsls	r6, r0, #27
 8002e32:	d536      	bpl.n	8002ea2 <HAL_DMA_IRQHandler+0x112>
 8002e34:	60aa      	str	r2, [r5, #8]
 8002e36:	f894 2035 	ldrb.w	r2, [r4, #53]	; 0x35
 8002e3a:	2a05      	cmp	r2, #5
 8002e3c:	681a      	ldr	r2, [r3, #0]
 8002e3e:	d127      	bne.n	8002e90 <HAL_DMA_IRQHandler+0x100>
 8002e40:	f022 0216 	bic.w	r2, r2, #22
 8002e44:	601a      	str	r2, [r3, #0]
 8002e46:	695a      	ldr	r2, [r3, #20]
 8002e48:	f022 0280 	bic.w	r2, r2, #128	; 0x80
 8002e4c:	615a      	str	r2, [r3, #20]
 8002e4e:	6c22      	ldr	r2, [r4, #64]	; 0x40
 8002e50:	b90a      	cbnz	r2, 8002e56 <HAL_DMA_IRQHandler+0xc6>
 8002e52:	6ca2      	ldr	r2, [r4, #72]	; 0x48
 8002e54:	b11a      	cbz	r2, 8002e5e <HAL_DMA_IRQHandler+0xce>
 8002e56:	681a      	ldr	r2, [r3, #0]
 8002e58:	f022 0208 	bic.w	r2, r2, #8
 8002e5c:	601a      	str	r2, [r3, #0]
 8002e5e:	233f      	movs	r3, #63	; 0x3f
 8002e60:	408b      	lsls	r3, r1
 8002e62:	60ab      	str	r3, [r5, #8]
 8002e64:	2301      	movs	r3, #1
 8002e66:	f884 3035 	strb.w	r3, [r4, #53]	; 0x35
 8002e6a:	2300      	movs	r3, #0
 8002e6c:	f884 3034 	strb.w	r3, [r4, #52]	; 0x34
 8002e70:	6d23      	ldr	r3, [r4, #80]	; 0x50
 8002e72:	2b00      	cmp	r3, #0
 8002e74:	d045      	beq.n	8002f02 <HAL_DMA_IRQHandler+0x172>
 8002e76:	4620      	mov	r0, r4
 8002e78:	b003      	add	sp, #12
 8002e7a:	e8bd 40f0 	ldmia.w	sp!, {r4, r5, r6, r7, lr}
 8002e7e:	4718      	bx	r3
 8002e80:	681a      	ldr	r2, [r3, #0]
 8002e82:	05d2      	lsls	r2, r2, #23
 8002e84:	bf5e      	ittt	pl
 8002e86:	681a      	ldrpl	r2, [r3, #0]
 8002e88:	f022 0208 	bicpl.w	r2, r2, #8
 8002e8c:	601a      	strpl	r2, [r3, #0]
 8002e8e:	e7c2      	b.n	8002e16 <HAL_DMA_IRQHandler+0x86>
 8002e90:	0350      	lsls	r0, r2, #13
 8002e92:	d527      	bpl.n	8002ee4 <HAL_DMA_IRQHandler+0x154>
 8002e94:	681b      	ldr	r3, [r3, #0]
 8002e96:	0319      	lsls	r1, r3, #12
 8002e98:	d431      	bmi.n	8002efe <HAL_DMA_IRQHandler+0x16e>
 8002e9a:	6c63      	ldr	r3, [r4, #68]	; 0x44
 8002e9c:	b10b      	cbz	r3, 8002ea2 <HAL_DMA_IRQHandler+0x112>
 8002e9e:	4620      	mov	r0, r4
 8002ea0:	4798      	blx	r3
 8002ea2:	6d63      	ldr	r3, [r4, #84]	; 0x54
 8002ea4:	b36b      	cbz	r3, 8002f02 <HAL_DMA_IRQHandler+0x172>
 8002ea6:	6d63      	ldr	r3, [r4, #84]	; 0x54
 8002ea8:	07da      	lsls	r2, r3, #31
 8002eaa:	d519      	bpl.n	8002ee0 <HAL_DMA_IRQHandler+0x150>
 8002eac:	6822      	ldr	r2, [r4, #0]
 8002eae:	f44f 5316 	mov.w	r3, #9600	; 0x2580
 8002eb2:	fbb7 f7f3 	udiv	r7, r7, r3
 8002eb6:	2305      	movs	r3, #5
 8002eb8:	f884 3035 	strb.w	r3, [r4, #53]	; 0x35
 8002ebc:	6813      	ldr	r3, [r2, #0]
 8002ebe:	f023 0301 	bic.w	r3, r3, #1
 8002ec2:	6013      	str	r3, [r2, #0]
 8002ec4:	9b01      	ldr	r3, [sp, #4]
 8002ec6:	3301      	adds	r3, #1
 8002ec8:	42bb      	cmp	r3, r7
 8002eca:	9301      	str	r3, [sp, #4]
 8002ecc:	d802      	bhi.n	8002ed4 <HAL_DMA_IRQHandler+0x144>
 8002ece:	6813      	ldr	r3, [r2, #0]
 8002ed0:	07db      	lsls	r3, r3, #31
 8002ed2:	d4f7      	bmi.n	8002ec4 <HAL_DMA_IRQHandler+0x134>
 8002ed4:	2301      	movs	r3, #1
 8002ed6:	f884 3035 	strb.w	r3, [r4, #53]	; 0x35
 8002eda:	2300      	movs	r3, #0
 8002edc:	f884 3034 	strb.w	r3, [r4, #52]	; 0x34
 8002ee0:	6ce3      	ldr	r3, [r4, #76]	; 0x4c
 8002ee2:	e7c6      	b.n	8002e72 <HAL_DMA_IRQHandler+0xe2>
 8002ee4:	681a      	ldr	r2, [r3, #0]
 8002ee6:	f412 7280 	ands.w	r2, r2, #256	; 0x100
 8002eea:	d108      	bne.n	8002efe <HAL_DMA_IRQHandler+0x16e>
 8002eec:	6819      	ldr	r1, [r3, #0]
 8002eee:	f021 0110 	bic.w	r1, r1, #16
 8002ef2:	6019      	str	r1, [r3, #0]
 8002ef4:	2301      	movs	r3, #1
 8002ef6:	f884 3035 	strb.w	r3, [r4, #53]	; 0x35
 8002efa:	f884 2034 	strb.w	r2, [r4, #52]	; 0x34
 8002efe:	6be3      	ldr	r3, [r4, #60]	; 0x3c
 8002f00:	e7cc      	b.n	8002e9c <HAL_DMA_IRQHandler+0x10c>
 8002f02:	b003      	add	sp, #12
 8002f04:	bdf0      	pop	{r4, r5, r6, r7, pc}
 8002f06:	bf00      	nop
 8002f08:	20000050 	.word	0x20000050

08002f0c <HAL_GPIO_Init>:
 8002f0c:	e92d 4ff7 	stmdb	sp!, {r0, r1, r2, r4, r5, r6, r7, r8, r9, sl, fp, lr}
 8002f10:	f8df 919c 	ldr.w	r9, [pc, #412]	; 80030b0 <HAL_GPIO_Init+0x1a4>
 8002f14:	4a64      	ldr	r2, [pc, #400]	; (80030a8 <HAL_GPIO_Init+0x19c>)
 8002f16:	2300      	movs	r3, #0
 8002f18:	680d      	ldr	r5, [r1, #0]
 8002f1a:	2401      	movs	r4, #1
 8002f1c:	409c      	lsls	r4, r3
 8002f1e:	ea04 0c05 	and.w	ip, r4, r5
 8002f22:	43ac      	bics	r4, r5
 8002f24:	f040 80ad 	bne.w	8003082 <HAL_GPIO_Init+0x176>
 8002f28:	684d      	ldr	r5, [r1, #4]
 8002f2a:	f005 0403 	and.w	r4, r5, #3
 8002f2e:	ea4f 0843 	mov.w	r8, r3, lsl #1
 8002f32:	2603      	movs	r6, #3
 8002f34:	1e67      	subs	r7, r4, #1
 8002f36:	fa06 f608 	lsl.w	r6, r6, r8
 8002f3a:	2f01      	cmp	r7, #1
 8002f3c:	ea6f 0606 	mvn.w	r6, r6
 8002f40:	d834      	bhi.n	8002fac <HAL_GPIO_Init+0xa0>
 8002f42:	6887      	ldr	r7, [r0, #8]
 8002f44:	ea07 0e06 	and.w	lr, r7, r6
 8002f48:	68cf      	ldr	r7, [r1, #12]
 8002f4a:	fa07 f708 	lsl.w	r7, r7, r8
 8002f4e:	ea47 070e 	orr.w	r7, r7, lr
 8002f52:	6087      	str	r7, [r0, #8]
 8002f54:	6847      	ldr	r7, [r0, #4]
 8002f56:	ea27 0e0c 	bic.w	lr, r7, ip
 8002f5a:	f3c5 1700 	ubfx	r7, r5, #4, #1
 8002f5e:	409f      	lsls	r7, r3
 8002f60:	ea47 070e 	orr.w	r7, r7, lr
 8002f64:	6047      	str	r7, [r0, #4]
 8002f66:	68c7      	ldr	r7, [r0, #12]
 8002f68:	ea07 0e06 	and.w	lr, r7, r6
 8002f6c:	688f      	ldr	r7, [r1, #8]
 8002f6e:	fa07 f708 	lsl.w	r7, r7, r8
 8002f72:	ea47 070e 	orr.w	r7, r7, lr
 8002f76:	2c02      	cmp	r4, #2
 8002f78:	60c7      	str	r7, [r0, #12]
 8002f7a:	d119      	bne.n	8002fb0 <HAL_GPIO_Init+0xa4>
 8002f7c:	ea4f 0ad3 	mov.w	sl, r3, lsr #3
 8002f80:	eb00 0a8a 	add.w	sl, r0, sl, lsl #2
 8002f84:	f003 0b07 	and.w	fp, r3, #7
 8002f88:	f8da 7020 	ldr.w	r7, [sl, #32]
 8002f8c:	ea4f 0b8b 	mov.w	fp, fp, lsl #2
 8002f90:	f04f 0e0f 	mov.w	lr, #15
 8002f94:	fa0e fe0b 	lsl.w	lr, lr, fp
 8002f98:	ea27 0e0e 	bic.w	lr, r7, lr
 8002f9c:	690f      	ldr	r7, [r1, #16]
 8002f9e:	fa07 f70b 	lsl.w	r7, r7, fp
 8002fa2:	ea47 070e 	orr.w	r7, r7, lr
 8002fa6:	f8ca 7020 	str.w	r7, [sl, #32]
 8002faa:	e001      	b.n	8002fb0 <HAL_GPIO_Init+0xa4>
 8002fac:	2c03      	cmp	r4, #3
 8002fae:	d1da      	bne.n	8002f66 <HAL_GPIO_Init+0x5a>
 8002fb0:	6807      	ldr	r7, [r0, #0]
 8002fb2:	fa04 f408 	lsl.w	r4, r4, r8
 8002fb6:	403e      	ands	r6, r7
 8002fb8:	4326      	orrs	r6, r4
 8002fba:	f415 3f40 	tst.w	r5, #196608	; 0x30000
 8002fbe:	6006      	str	r6, [r0, #0]
 8002fc0:	d05f      	beq.n	8003082 <HAL_GPIO_Init+0x176>
 8002fc2:	f04f 0a00 	mov.w	sl, #0
 8002fc6:	f8cd a004 	str.w	sl, [sp, #4]
 8002fca:	f8d9 6044 	ldr.w	r6, [r9, #68]	; 0x44
 8002fce:	4c37      	ldr	r4, [pc, #220]	; (80030ac <HAL_GPIO_Init+0x1a0>)
 8002fd0:	f446 4680 	orr.w	r6, r6, #16384	; 0x4000
 8002fd4:	f8c9 6044 	str.w	r6, [r9, #68]	; 0x44
 8002fd8:	f8d9 6044 	ldr.w	r6, [r9, #68]	; 0x44
 8002fdc:	f406 4680 	and.w	r6, r6, #16384	; 0x4000
 8002fe0:	9601      	str	r6, [sp, #4]
 8002fe2:	9e01      	ldr	r6, [sp, #4]
 8002fe4:	f023 0603 	bic.w	r6, r3, #3
 8002fe8:	f106 4680 	add.w	r6, r6, #1073741824	; 0x40000000
 8002fec:	f506 369c 	add.w	r6, r6, #79872	; 0x13800
 8002ff0:	f003 0e03 	and.w	lr, r3, #3
 8002ff4:	f8d6 8008 	ldr.w	r8, [r6, #8]
 8002ff8:	ea4f 0e8e 	mov.w	lr, lr, lsl #2
 8002ffc:	270f      	movs	r7, #15
 8002ffe:	fa07 f70e 	lsl.w	r7, r7, lr
 8003002:	42a0      	cmp	r0, r4
 8003004:	ea28 0707 	bic.w	r7, r8, r7
 8003008:	d042      	beq.n	8003090 <HAL_GPIO_Init+0x184>
 800300a:	f504 6480 	add.w	r4, r4, #1024	; 0x400
 800300e:	42a0      	cmp	r0, r4
 8003010:	d040      	beq.n	8003094 <HAL_GPIO_Init+0x188>
 8003012:	f504 6480 	add.w	r4, r4, #1024	; 0x400
 8003016:	42a0      	cmp	r0, r4
 8003018:	d03e      	beq.n	8003098 <HAL_GPIO_Init+0x18c>
 800301a:	f504 6480 	add.w	r4, r4, #1024	; 0x400
 800301e:	42a0      	cmp	r0, r4
 8003020:	d03c      	beq.n	800309c <HAL_GPIO_Init+0x190>
 8003022:	f504 6480 	add.w	r4, r4, #1024	; 0x400
 8003026:	42a0      	cmp	r0, r4
 8003028:	d03a      	beq.n	80030a0 <HAL_GPIO_Init+0x194>
 800302a:	f504 6480 	add.w	r4, r4, #1024	; 0x400
 800302e:	42a0      	cmp	r0, r4
 8003030:	d038      	beq.n	80030a4 <HAL_GPIO_Init+0x198>
 8003032:	f504 6480 	add.w	r4, r4, #1024	; 0x400
 8003036:	42a0      	cmp	r0, r4
 8003038:	bf0c      	ite	eq
 800303a:	2406      	moveq	r4, #6
 800303c:	2407      	movne	r4, #7
 800303e:	fa04 f40e 	lsl.w	r4, r4, lr
 8003042:	433c      	orrs	r4, r7
 8003044:	60b4      	str	r4, [r6, #8]
 8003046:	6814      	ldr	r4, [r2, #0]
 8003048:	ea6f 060c 	mvn.w	r6, ip
 800304c:	03ef      	lsls	r7, r5, #15
 800304e:	bf54      	ite	pl
 8003050:	4034      	andpl	r4, r6
 8003052:	ea4c 0404 	orrmi.w	r4, ip, r4
 8003056:	6014      	str	r4, [r2, #0]
 8003058:	6854      	ldr	r4, [r2, #4]
 800305a:	03af      	lsls	r7, r5, #14
 800305c:	bf54      	ite	pl
 800305e:	4034      	andpl	r4, r6
 8003060:	ea4c 0404 	orrmi.w	r4, ip, r4
 8003064:	6054      	str	r4, [r2, #4]
 8003066:	6894      	ldr	r4, [r2, #8]
 8003068:	02ef      	lsls	r7, r5, #11
 800306a:	bf54      	ite	pl
 800306c:	4034      	andpl	r4, r6
 800306e:	ea4c 0404 	orrmi.w	r4, ip, r4
 8003072:	6094      	str	r4, [r2, #8]
 8003074:	68d4      	ldr	r4, [r2, #12]
 8003076:	02ad      	lsls	r5, r5, #10
 8003078:	bf54      	ite	pl
 800307a:	4034      	andpl	r4, r6
 800307c:	ea4c 0404 	orrmi.w	r4, ip, r4
 8003080:	60d4      	str	r4, [r2, #12]
 8003082:	3301      	adds	r3, #1
 8003084:	2b10      	cmp	r3, #16
 8003086:	f47f af47 	bne.w	8002f18 <HAL_GPIO_Init+0xc>
 800308a:	b003      	add	sp, #12
 800308c:	e8bd 8ff0 	ldmia.w	sp!, {r4, r5, r6, r7, r8, r9, sl, fp, pc}
 8003090:	4654      	mov	r4, sl
 8003092:	e7d4      	b.n	800303e <HAL_GPIO_Init+0x132>
 8003094:	2401      	movs	r4, #1
 8003096:	e7d2      	b.n	800303e <HAL_GPIO_Init+0x132>
 8003098:	2402      	movs	r4, #2
 800309a:	e7d0      	b.n	800303e <HAL_GPIO_Init+0x132>
 800309c:	2403      	movs	r4, #3
 800309e:	e7ce      	b.n	800303e <HAL_GPIO_Init+0x132>
 80030a0:	2404      	movs	r4, #4
 80030a2:	e7cc      	b.n	800303e <HAL_GPIO_Init+0x132>
 80030a4:	2405      	movs	r4, #5
 80030a6:	e7ca      	b.n	800303e <HAL_GPIO_Init+0x132>
 80030a8:	40013c00 	.word	0x40013c00
 80030ac:	40020000 	.word	0x40020000
 80030b0:	40023800 	.word	0x40023800

080030b4 <HAL_GPIO_ReadPin>:
 80030b4:	6903      	ldr	r3, [r0, #16]
 80030b6:	4219      	tst	r1, r3
 80030b8:	bf14      	ite	ne
 80030ba:	2001      	movne	r0, #1
 80030bc:	2000      	moveq	r0, #0
 80030be:	4770      	bx	lr

080030c0 <HAL_GPIO_WritePin>:
 80030c0:	b10a      	cbz	r2, 80030c6 <HAL_GPIO_WritePin+0x6>
 80030c2:	6181      	str	r1, [r0, #24]
 80030c4:	4770      	bx	lr
 80030c6:	0409      	lsls	r1, r1, #16
 80030c8:	e7fb      	b.n	80030c2 <HAL_GPIO_WritePin+0x2>

080030ca <HAL_GPIO_TogglePin>:
 80030ca:	6943      	ldr	r3, [r0, #20]
 80030cc:	ea01 0203 	and.w	r2, r1, r3
 80030d0:	ea21 0103 	bic.w	r1, r1, r3
 80030d4:	ea41 4102 	orr.w	r1, r1, r2, lsl #16
 80030d8:	6181      	str	r1, [r0, #24]
 80030da:	4770      	bx	lr

080030dc <HAL_RCC_ClockConfig>:
 80030dc:	e92d 41f0 	stmdb	sp!, {r4, r5, r6, r7, r8, lr}
 80030e0:	460d      	mov	r5, r1
 80030e2:	4604      	mov	r4, r0
 80030e4:	b910      	cbnz	r0, 80030ec <HAL_RCC_ClockConfig+0x10>
 80030e6:	2001      	movs	r0, #1
 80030e8:	e8bd 81f0 	ldmia.w	sp!, {r4, r5, r6, r7, r8, pc}
 80030ec:	4b44      	ldr	r3, [pc, #272]	; (8003200 <HAL_RCC_ClockConfig+0x124>)
 80030ee:	681a      	ldr	r2, [r3, #0]
 80030f0:	f002 020f 	and.w	r2, r2, #15
 80030f4:	428a      	cmp	r2, r1
 80030f6:	d328      	bcc.n	800314a <HAL_RCC_ClockConfig+0x6e>
 80030f8:	6822      	ldr	r2, [r4, #0]
 80030fa:	0797      	lsls	r7, r2, #30
 80030fc:	d42d      	bmi.n	800315a <HAL_RCC_ClockConfig+0x7e>
 80030fe:	07d0      	lsls	r0, r2, #31
 8003100:	d441      	bmi.n	8003186 <HAL_RCC_ClockConfig+0xaa>
 8003102:	4b3f      	ldr	r3, [pc, #252]	; (8003200 <HAL_RCC_ClockConfig+0x124>)
 8003104:	681a      	ldr	r2, [r3, #0]
 8003106:	f002 020f 	and.w	r2, r2, #15
 800310a:	42aa      	cmp	r2, r5
 800310c:	d866      	bhi.n	80031dc <HAL_RCC_ClockConfig+0x100>
 800310e:	6822      	ldr	r2, [r4, #0]
 8003110:	0751      	lsls	r1, r2, #29
 8003112:	d46c      	bmi.n	80031ee <HAL_RCC_ClockConfig+0x112>
 8003114:	0713      	lsls	r3, r2, #28
 8003116:	d507      	bpl.n	8003128 <HAL_RCC_ClockConfig+0x4c>
 8003118:	4a3a      	ldr	r2, [pc, #232]	; (8003204 <HAL_RCC_ClockConfig+0x128>)
 800311a:	6921      	ldr	r1, [r4, #16]
 800311c:	6893      	ldr	r3, [r2, #8]
 800311e:	f423 4360 	bic.w	r3, r3, #57344	; 0xe000
 8003122:	ea43 03c1 	orr.w	r3, r3, r1, lsl #3
 8003126:	6093      	str	r3, [r2, #8]
 8003128:	f000 f894 	bl	8003254 <HAL_RCC_GetSysClockFreq>
 800312c:	4b35      	ldr	r3, [pc, #212]	; (8003204 <HAL_RCC_ClockConfig+0x128>)
 800312e:	4a36      	ldr	r2, [pc, #216]	; (8003208 <HAL_RCC_ClockConfig+0x12c>)
 8003130:	689b      	ldr	r3, [r3, #8]
 8003132:	f3c3 1303 	ubfx	r3, r3, #4, #4
 8003136:	5cd3      	ldrb	r3, [r2, r3]
 8003138:	40d8      	lsrs	r0, r3
 800313a:	4b34      	ldr	r3, [pc, #208]	; (800320c <HAL_RCC_ClockConfig+0x130>)
 800313c:	6018      	str	r0, [r3, #0]
 800313e:	4b34      	ldr	r3, [pc, #208]	; (8003210 <HAL_RCC_ClockConfig+0x134>)
 8003140:	6818      	ldr	r0, [r3, #0]
 8003142:	f7fe feab 	bl	8001e9c <HAL_InitTick>
 8003146:	2000      	movs	r0, #0
 8003148:	e7ce      	b.n	80030e8 <HAL_RCC_ClockConfig+0xc>
 800314a:	b2ca      	uxtb	r2, r1
 800314c:	701a      	strb	r2, [r3, #0]
 800314e:	681b      	ldr	r3, [r3, #0]
 8003150:	f003 030f 	and.w	r3, r3, #15
 8003154:	428b      	cmp	r3, r1
 8003156:	d1c6      	bne.n	80030e6 <HAL_RCC_ClockConfig+0xa>
 8003158:	e7ce      	b.n	80030f8 <HAL_RCC_ClockConfig+0x1c>
 800315a:	4b2a      	ldr	r3, [pc, #168]	; (8003204 <HAL_RCC_ClockConfig+0x128>)
 800315c:	f012 0f04 	tst.w	r2, #4
 8003160:	bf1e      	ittt	ne
 8003162:	6899      	ldrne	r1, [r3, #8]
 8003164:	f441 51e0 	orrne.w	r1, r1, #7168	; 0x1c00
 8003168:	6099      	strne	r1, [r3, #8]
 800316a:	0716      	lsls	r6, r2, #28
 800316c:	bf42      	ittt	mi
 800316e:	6899      	ldrmi	r1, [r3, #8]
 8003170:	f441 4160 	orrmi.w	r1, r1, #57344	; 0xe000
 8003174:	6099      	strmi	r1, [r3, #8]
 8003176:	4923      	ldr	r1, [pc, #140]	; (8003204 <HAL_RCC_ClockConfig+0x128>)
 8003178:	68a0      	ldr	r0, [r4, #8]
 800317a:	688b      	ldr	r3, [r1, #8]
 800317c:	f023 03f0 	bic.w	r3, r3, #240	; 0xf0
 8003180:	4303      	orrs	r3, r0
 8003182:	608b      	str	r3, [r1, #8]
 8003184:	e7bb      	b.n	80030fe <HAL_RCC_ClockConfig+0x22>
 8003186:	6862      	ldr	r2, [r4, #4]
 8003188:	4b1e      	ldr	r3, [pc, #120]	; (8003204 <HAL_RCC_ClockConfig+0x128>)
 800318a:	2a01      	cmp	r2, #1
 800318c:	d11c      	bne.n	80031c8 <HAL_RCC_ClockConfig+0xec>
 800318e:	681b      	ldr	r3, [r3, #0]
 8003190:	f413 3f00 	tst.w	r3, #131072	; 0x20000
 8003194:	d0a7      	beq.n	80030e6 <HAL_RCC_ClockConfig+0xa>
 8003196:	4e1b      	ldr	r6, [pc, #108]	; (8003204 <HAL_RCC_ClockConfig+0x128>)
 8003198:	68b3      	ldr	r3, [r6, #8]
 800319a:	f023 0303 	bic.w	r3, r3, #3
 800319e:	4313      	orrs	r3, r2
 80031a0:	60b3      	str	r3, [r6, #8]
 80031a2:	f7fe fec5 	bl	8001f30 <HAL_GetTick>
 80031a6:	f241 3888 	movw	r8, #5000	; 0x1388
 80031aa:	4607      	mov	r7, r0
 80031ac:	68b3      	ldr	r3, [r6, #8]
 80031ae:	6862      	ldr	r2, [r4, #4]
 80031b0:	f003 030c 	and.w	r3, r3, #12
 80031b4:	ebb3 0f82 	cmp.w	r3, r2, lsl #2
 80031b8:	d0a3      	beq.n	8003102 <HAL_RCC_ClockConfig+0x26>
 80031ba:	f7fe feb9 	bl	8001f30 <HAL_GetTick>
 80031be:	1bc0      	subs	r0, r0, r7
 80031c0:	4540      	cmp	r0, r8
 80031c2:	d9f3      	bls.n	80031ac <HAL_RCC_ClockConfig+0xd0>
 80031c4:	2003      	movs	r0, #3
 80031c6:	e78f      	b.n	80030e8 <HAL_RCC_ClockConfig+0xc>
 80031c8:	1e91      	subs	r1, r2, #2
 80031ca:	2901      	cmp	r1, #1
 80031cc:	681b      	ldr	r3, [r3, #0]
 80031ce:	d802      	bhi.n	80031d6 <HAL_RCC_ClockConfig+0xfa>
 80031d0:	f013 7f00 	tst.w	r3, #33554432	; 0x2000000
 80031d4:	e7de      	b.n	8003194 <HAL_RCC_ClockConfig+0xb8>
 80031d6:	f013 0f02 	tst.w	r3, #2
 80031da:	e7db      	b.n	8003194 <HAL_RCC_ClockConfig+0xb8>
 80031dc:	b2ea      	uxtb	r2, r5
 80031de:	701a      	strb	r2, [r3, #0]
 80031e0:	681b      	ldr	r3, [r3, #0]
 80031e2:	f003 030f 	and.w	r3, r3, #15
 80031e6:	42ab      	cmp	r3, r5
 80031e8:	f47f af7d 	bne.w	80030e6 <HAL_RCC_ClockConfig+0xa>
 80031ec:	e78f      	b.n	800310e <HAL_RCC_ClockConfig+0x32>
 80031ee:	4905      	ldr	r1, [pc, #20]	; (8003204 <HAL_RCC_ClockConfig+0x128>)
 80031f0:	68e0      	ldr	r0, [r4, #12]
 80031f2:	688b      	ldr	r3, [r1, #8]
 80031f4:	f423 53e0 	bic.w	r3, r3, #7168	; 0x1c00
 80031f8:	4303      	orrs	r3, r0
 80031fa:	608b      	str	r3, [r1, #8]
 80031fc:	e78a      	b.n	8003114 <HAL_RCC_ClockConfig+0x38>
 80031fe:	bf00      	nop
 8003200:	40023c00 	.word	0x40023c00
 8003204:	40023800 	.word	0x40023800
 8003208:	08004b5c 	.word	0x08004b5c
 800320c:	20000050 	.word	0x20000050
 8003210:	20000058 	.word	0x20000058

08003214 <HAL_RCC_GetPCLK1Freq>:
 8003214:	4b04      	ldr	r3, [pc, #16]	; (8003228 <HAL_RCC_GetPCLK1Freq+0x14>)
 8003216:	4a05      	ldr	r2, [pc, #20]	; (800322c <HAL_RCC_GetPCLK1Freq+0x18>)
 8003218:	689b      	ldr	r3, [r3, #8]
 800321a:	f3c3 2382 	ubfx	r3, r3, #10, #3
 800321e:	5cd3      	ldrb	r3, [r2, r3]
 8003220:	4a03      	ldr	r2, [pc, #12]	; (8003230 <HAL_RCC_GetPCLK1Freq+0x1c>)
 8003222:	6810      	ldr	r0, [r2, #0]
 8003224:	40d8      	lsrs	r0, r3
 8003226:	4770      	bx	lr
 8003228:	40023800 	.word	0x40023800
 800322c:	08004b6c 	.word	0x08004b6c
 8003230:	20000050 	.word	0x20000050

08003234 <HAL_RCC_GetPCLK2Freq>:
 8003234:	4b04      	ldr	r3, [pc, #16]	; (8003248 <HAL_RCC_GetPCLK2Freq+0x14>)
 8003236:	4a05      	ldr	r2, [pc, #20]	; (800324c <HAL_RCC_GetPCLK2Freq+0x18>)
 8003238:	689b      	ldr	r3, [r3, #8]
 800323a:	f3c3 3342 	ubfx	r3, r3, #13, #3
 800323e:	5cd3      	ldrb	r3, [r2, r3]
 8003240:	4a03      	ldr	r2, [pc, #12]	; (8003250 <HAL_RCC_GetPCLK2Freq+0x1c>)
 8003242:	6810      	ldr	r0, [r2, #0]
 8003244:	40d8      	lsrs	r0, r3
 8003246:	4770      	bx	lr
 8003248:	40023800 	.word	0x40023800
 800324c:	08004b6c 	.word	0x08004b6c
 8003250:	20000050 	.word	0x20000050

08003254 <HAL_RCC_GetSysClockFreq>:
 8003254:	4920      	ldr	r1, [pc, #128]	; (80032d8 <HAL_RCC_GetSysClockFreq+0x84>)
 8003256:	b508      	push	{r3, lr}
 8003258:	688b      	ldr	r3, [r1, #8]
 800325a:	f003 030c 	and.w	r3, r3, #12
 800325e:	2b08      	cmp	r3, #8
 8003260:	d007      	beq.n	8003272 <HAL_RCC_GetSysClockFreq+0x1e>
 8003262:	2b0c      	cmp	r3, #12
 8003264:	d020      	beq.n	80032a8 <HAL_RCC_GetSysClockFreq+0x54>
 8003266:	481d      	ldr	r0, [pc, #116]	; (80032dc <HAL_RCC_GetSysClockFreq+0x88>)
 8003268:	4a1d      	ldr	r2, [pc, #116]	; (80032e0 <HAL_RCC_GetSysClockFreq+0x8c>)
 800326a:	2b04      	cmp	r3, #4
 800326c:	bf08      	it	eq
 800326e:	4610      	moveq	r0, r2
 8003270:	bd08      	pop	{r3, pc}
 8003272:	684a      	ldr	r2, [r1, #4]
 8003274:	684b      	ldr	r3, [r1, #4]
 8003276:	6849      	ldr	r1, [r1, #4]
 8003278:	f413 0380 	ands.w	r3, r3, #4194304	; 0x400000
 800327c:	bf14      	ite	ne
 800327e:	4818      	ldrne	r0, [pc, #96]	; (80032e0 <HAL_RCC_GetSysClockFreq+0x8c>)
 8003280:	4816      	ldreq	r0, [pc, #88]	; (80032dc <HAL_RCC_GetSysClockFreq+0x88>)
 8003282:	f3c1 1188 	ubfx	r1, r1, #6, #9
 8003286:	bf18      	it	ne
 8003288:	2300      	movne	r3, #0
 800328a:	f002 023f 	and.w	r2, r2, #63	; 0x3f
 800328e:	fba1 0100 	umull	r0, r1, r1, r0
 8003292:	f7fd fc3b 	bl	8000b0c <__aeabi_uldivmod>
 8003296:	4b10      	ldr	r3, [pc, #64]	; (80032d8 <HAL_RCC_GetSysClockFreq+0x84>)
 8003298:	685b      	ldr	r3, [r3, #4]
 800329a:	f3c3 4301 	ubfx	r3, r3, #16, #2
 800329e:	3301      	adds	r3, #1
 80032a0:	005b      	lsls	r3, r3, #1
 80032a2:	fbb0 f0f3 	udiv	r0, r0, r3
 80032a6:	e7e3      	b.n	8003270 <HAL_RCC_GetSysClockFreq+0x1c>
 80032a8:	684a      	ldr	r2, [r1, #4]
 80032aa:	684b      	ldr	r3, [r1, #4]
 80032ac:	6849      	ldr	r1, [r1, #4]
 80032ae:	f413 0380 	ands.w	r3, r3, #4194304	; 0x400000
 80032b2:	bf14      	ite	ne
 80032b4:	480a      	ldrne	r0, [pc, #40]	; (80032e0 <HAL_RCC_GetSysClockFreq+0x8c>)
 80032b6:	4809      	ldreq	r0, [pc, #36]	; (80032dc <HAL_RCC_GetSysClockFreq+0x88>)
 80032b8:	f3c1 1188 	ubfx	r1, r1, #6, #9
 80032bc:	bf18      	it	ne
 80032be:	2300      	movne	r3, #0
 80032c0:	f002 023f 	and.w	r2, r2, #63	; 0x3f
 80032c4:	fba1 0100 	umull	r0, r1, r1, r0
 80032c8:	f7fd fc20 	bl	8000b0c <__aeabi_uldivmod>
 80032cc:	4b02      	ldr	r3, [pc, #8]	; (80032d8 <HAL_RCC_GetSysClockFreq+0x84>)
 80032ce:	685b      	ldr	r3, [r3, #4]
 80032d0:	f3c3 7302 	ubfx	r3, r3, #28, #3
 80032d4:	e7e5      	b.n	80032a2 <HAL_RCC_GetSysClockFreq+0x4e>
 80032d6:	bf00      	nop
 80032d8:	40023800 	.word	0x40023800
 80032dc:	00f42400 	.word	0x00f42400
 80032e0:	007a1200 	.word	0x007a1200

080032e4 <HAL_RCC_OscConfig>:
 80032e4:	e92d 41f3 	stmdb	sp!, {r0, r1, r4, r5, r6, r7, r8, lr}
 80032e8:	4604      	mov	r4, r0
 80032ea:	2800      	cmp	r0, #0
 80032ec:	d030      	beq.n	8003350 <HAL_RCC_OscConfig+0x6c>
 80032ee:	6803      	ldr	r3, [r0, #0]
 80032f0:	07df      	lsls	r7, r3, #31
 80032f2:	d410      	bmi.n	8003316 <HAL_RCC_OscConfig+0x32>
 80032f4:	6823      	ldr	r3, [r4, #0]
 80032f6:	079e      	lsls	r6, r3, #30
 80032f8:	d463      	bmi.n	80033c2 <HAL_RCC_OscConfig+0xde>
 80032fa:	6823      	ldr	r3, [r4, #0]
 80032fc:	071a      	lsls	r2, r3, #28
 80032fe:	f100 80ad 	bmi.w	800345c <HAL_RCC_OscConfig+0x178>
 8003302:	6823      	ldr	r3, [r4, #0]
 8003304:	075b      	lsls	r3, r3, #29
 8003306:	f100 80cb 	bmi.w	80034a0 <HAL_RCC_OscConfig+0x1bc>
 800330a:	69a0      	ldr	r0, [r4, #24]
 800330c:	2800      	cmp	r0, #0
 800330e:	f040 8135 	bne.w	800357c <HAL_RCC_OscConfig+0x298>
 8003312:	2000      	movs	r0, #0
 8003314:	e034      	b.n	8003380 <HAL_RCC_OscConfig+0x9c>
 8003316:	4b95      	ldr	r3, [pc, #596]	; (800356c <HAL_RCC_OscConfig+0x288>)
 8003318:	689a      	ldr	r2, [r3, #8]
 800331a:	f002 020c 	and.w	r2, r2, #12
 800331e:	2a04      	cmp	r2, #4
 8003320:	d00f      	beq.n	8003342 <HAL_RCC_OscConfig+0x5e>
 8003322:	689a      	ldr	r2, [r3, #8]
 8003324:	f002 020c 	and.w	r2, r2, #12
 8003328:	2a08      	cmp	r2, #8
 800332a:	d102      	bne.n	8003332 <HAL_RCC_OscConfig+0x4e>
 800332c:	685a      	ldr	r2, [r3, #4]
 800332e:	0255      	lsls	r5, r2, #9
 8003330:	d407      	bmi.n	8003342 <HAL_RCC_OscConfig+0x5e>
 8003332:	689a      	ldr	r2, [r3, #8]
 8003334:	f002 020c 	and.w	r2, r2, #12
 8003338:	2a0c      	cmp	r2, #12
 800333a:	d10b      	bne.n	8003354 <HAL_RCC_OscConfig+0x70>
 800333c:	685b      	ldr	r3, [r3, #4]
 800333e:	0258      	lsls	r0, r3, #9
 8003340:	d508      	bpl.n	8003354 <HAL_RCC_OscConfig+0x70>
 8003342:	4b8a      	ldr	r3, [pc, #552]	; (800356c <HAL_RCC_OscConfig+0x288>)
 8003344:	681b      	ldr	r3, [r3, #0]
 8003346:	0399      	lsls	r1, r3, #14
 8003348:	d5d4      	bpl.n	80032f4 <HAL_RCC_OscConfig+0x10>
 800334a:	6863      	ldr	r3, [r4, #4]
 800334c:	2b00      	cmp	r3, #0
 800334e:	d1d1      	bne.n	80032f4 <HAL_RCC_OscConfig+0x10>
 8003350:	2001      	movs	r0, #1
 8003352:	e015      	b.n	8003380 <HAL_RCC_OscConfig+0x9c>
 8003354:	6863      	ldr	r3, [r4, #4]
 8003356:	4d85      	ldr	r5, [pc, #532]	; (800356c <HAL_RCC_OscConfig+0x288>)
 8003358:	f5b3 3f80 	cmp.w	r3, #65536	; 0x10000
 800335c:	d113      	bne.n	8003386 <HAL_RCC_OscConfig+0xa2>
 800335e:	682b      	ldr	r3, [r5, #0]
 8003360:	f443 3380 	orr.w	r3, r3, #65536	; 0x10000
 8003364:	602b      	str	r3, [r5, #0]
 8003366:	f7fe fde3 	bl	8001f30 <HAL_GetTick>
 800336a:	4e80      	ldr	r6, [pc, #512]	; (800356c <HAL_RCC_OscConfig+0x288>)
 800336c:	4605      	mov	r5, r0
 800336e:	6833      	ldr	r3, [r6, #0]
 8003370:	039a      	lsls	r2, r3, #14
 8003372:	d4bf      	bmi.n	80032f4 <HAL_RCC_OscConfig+0x10>
 8003374:	f7fe fddc 	bl	8001f30 <HAL_GetTick>
 8003378:	1b40      	subs	r0, r0, r5
 800337a:	2864      	cmp	r0, #100	; 0x64
 800337c:	d9f7      	bls.n	800336e <HAL_RCC_OscConfig+0x8a>
 800337e:	2003      	movs	r0, #3
 8003380:	b002      	add	sp, #8
 8003382:	e8bd 81f0 	ldmia.w	sp!, {r4, r5, r6, r7, r8, pc}
 8003386:	f5b3 2fa0 	cmp.w	r3, #327680	; 0x50000
 800338a:	d104      	bne.n	8003396 <HAL_RCC_OscConfig+0xb2>
 800338c:	682b      	ldr	r3, [r5, #0]
 800338e:	f443 2380 	orr.w	r3, r3, #262144	; 0x40000
 8003392:	602b      	str	r3, [r5, #0]
 8003394:	e7e3      	b.n	800335e <HAL_RCC_OscConfig+0x7a>
 8003396:	682a      	ldr	r2, [r5, #0]
 8003398:	f422 3280 	bic.w	r2, r2, #65536	; 0x10000
 800339c:	602a      	str	r2, [r5, #0]
 800339e:	682a      	ldr	r2, [r5, #0]
 80033a0:	f422 2280 	bic.w	r2, r2, #262144	; 0x40000
 80033a4:	602a      	str	r2, [r5, #0]
 80033a6:	2b00      	cmp	r3, #0
 80033a8:	d1dd      	bne.n	8003366 <HAL_RCC_OscConfig+0x82>
 80033aa:	f7fe fdc1 	bl	8001f30 <HAL_GetTick>
 80033ae:	4606      	mov	r6, r0
 80033b0:	682b      	ldr	r3, [r5, #0]
 80033b2:	039b      	lsls	r3, r3, #14
 80033b4:	d59e      	bpl.n	80032f4 <HAL_RCC_OscConfig+0x10>
 80033b6:	f7fe fdbb 	bl	8001f30 <HAL_GetTick>
 80033ba:	1b80      	subs	r0, r0, r6
 80033bc:	2864      	cmp	r0, #100	; 0x64
 80033be:	d9f7      	bls.n	80033b0 <HAL_RCC_OscConfig+0xcc>
 80033c0:	e7dd      	b.n	800337e <HAL_RCC_OscConfig+0x9a>
 80033c2:	4b6a      	ldr	r3, [pc, #424]	; (800356c <HAL_RCC_OscConfig+0x288>)
 80033c4:	689a      	ldr	r2, [r3, #8]
 80033c6:	f012 0f0c 	tst.w	r2, #12
 80033ca:	d00f      	beq.n	80033ec <HAL_RCC_OscConfig+0x108>
 80033cc:	689a      	ldr	r2, [r3, #8]
 80033ce:	f002 020c 	and.w	r2, r2, #12
 80033d2:	2a08      	cmp	r2, #8
 80033d4:	d102      	bne.n	80033dc <HAL_RCC_OscConfig+0xf8>
 80033d6:	685a      	ldr	r2, [r3, #4]
 80033d8:	0257      	lsls	r7, r2, #9
 80033da:	d507      	bpl.n	80033ec <HAL_RCC_OscConfig+0x108>
 80033dc:	689a      	ldr	r2, [r3, #8]
 80033de:	f002 020c 	and.w	r2, r2, #12
 80033e2:	2a0c      	cmp	r2, #12
 80033e4:	d111      	bne.n	800340a <HAL_RCC_OscConfig+0x126>
 80033e6:	685b      	ldr	r3, [r3, #4]
 80033e8:	025e      	lsls	r6, r3, #9
 80033ea:	d40e      	bmi.n	800340a <HAL_RCC_OscConfig+0x126>
 80033ec:	4b5f      	ldr	r3, [pc, #380]	; (800356c <HAL_RCC_OscConfig+0x288>)
 80033ee:	681a      	ldr	r2, [r3, #0]
 80033f0:	0795      	lsls	r5, r2, #30
 80033f2:	d502      	bpl.n	80033fa <HAL_RCC_OscConfig+0x116>
 80033f4:	68e2      	ldr	r2, [r4, #12]
 80033f6:	2a01      	cmp	r2, #1
 80033f8:	d1aa      	bne.n	8003350 <HAL_RCC_OscConfig+0x6c>
 80033fa:	681a      	ldr	r2, [r3, #0]
 80033fc:	6921      	ldr	r1, [r4, #16]
 80033fe:	f022 02f8 	bic.w	r2, r2, #248	; 0xf8
 8003402:	ea42 02c1 	orr.w	r2, r2, r1, lsl #3
 8003406:	601a      	str	r2, [r3, #0]
 8003408:	e777      	b.n	80032fa <HAL_RCC_OscConfig+0x16>
 800340a:	68e2      	ldr	r2, [r4, #12]
 800340c:	4b58      	ldr	r3, [pc, #352]	; (8003570 <HAL_RCC_OscConfig+0x28c>)
 800340e:	b1b2      	cbz	r2, 800343e <HAL_RCC_OscConfig+0x15a>
 8003410:	2201      	movs	r2, #1
 8003412:	601a      	str	r2, [r3, #0]
 8003414:	f7fe fd8c 	bl	8001f30 <HAL_GetTick>
 8003418:	4d54      	ldr	r5, [pc, #336]	; (800356c <HAL_RCC_OscConfig+0x288>)
 800341a:	4606      	mov	r6, r0
 800341c:	682b      	ldr	r3, [r5, #0]
 800341e:	0798      	lsls	r0, r3, #30
 8003420:	d507      	bpl.n	8003432 <HAL_RCC_OscConfig+0x14e>
 8003422:	682b      	ldr	r3, [r5, #0]
 8003424:	6922      	ldr	r2, [r4, #16]
 8003426:	f023 03f8 	bic.w	r3, r3, #248	; 0xf8
 800342a:	ea43 03c2 	orr.w	r3, r3, r2, lsl #3
 800342e:	602b      	str	r3, [r5, #0]
 8003430:	e763      	b.n	80032fa <HAL_RCC_OscConfig+0x16>
 8003432:	f7fe fd7d 	bl	8001f30 <HAL_GetTick>
 8003436:	1b80      	subs	r0, r0, r6
 8003438:	2802      	cmp	r0, #2
 800343a:	d9ef      	bls.n	800341c <HAL_RCC_OscConfig+0x138>
 800343c:	e79f      	b.n	800337e <HAL_RCC_OscConfig+0x9a>
 800343e:	601a      	str	r2, [r3, #0]
 8003440:	f7fe fd76 	bl	8001f30 <HAL_GetTick>
 8003444:	4e49      	ldr	r6, [pc, #292]	; (800356c <HAL_RCC_OscConfig+0x288>)
 8003446:	4605      	mov	r5, r0
 8003448:	6833      	ldr	r3, [r6, #0]
 800344a:	0799      	lsls	r1, r3, #30
 800344c:	f57f af55 	bpl.w	80032fa <HAL_RCC_OscConfig+0x16>
 8003450:	f7fe fd6e 	bl	8001f30 <HAL_GetTick>
 8003454:	1b40      	subs	r0, r0, r5
 8003456:	2802      	cmp	r0, #2
 8003458:	d9f6      	bls.n	8003448 <HAL_RCC_OscConfig+0x164>
 800345a:	e790      	b.n	800337e <HAL_RCC_OscConfig+0x9a>
 800345c:	6962      	ldr	r2, [r4, #20]
 800345e:	4b45      	ldr	r3, [pc, #276]	; (8003574 <HAL_RCC_OscConfig+0x290>)
 8003460:	b17a      	cbz	r2, 8003482 <HAL_RCC_OscConfig+0x19e>
 8003462:	2201      	movs	r2, #1
 8003464:	601a      	str	r2, [r3, #0]
 8003466:	f7fe fd63 	bl	8001f30 <HAL_GetTick>
 800346a:	4e40      	ldr	r6, [pc, #256]	; (800356c <HAL_RCC_OscConfig+0x288>)
 800346c:	4605      	mov	r5, r0
 800346e:	6f73      	ldr	r3, [r6, #116]	; 0x74
 8003470:	079f      	lsls	r7, r3, #30
 8003472:	f53f af46 	bmi.w	8003302 <HAL_RCC_OscConfig+0x1e>
 8003476:	f7fe fd5b 	bl	8001f30 <HAL_GetTick>
 800347a:	1b40      	subs	r0, r0, r5
 800347c:	2802      	cmp	r0, #2
 800347e:	d9f6      	bls.n	800346e <HAL_RCC_OscConfig+0x18a>
 8003480:	e77d      	b.n	800337e <HAL_RCC_OscConfig+0x9a>
 8003482:	601a      	str	r2, [r3, #0]
 8003484:	f7fe fd54 	bl	8001f30 <HAL_GetTick>
 8003488:	4e38      	ldr	r6, [pc, #224]	; (800356c <HAL_RCC_OscConfig+0x288>)
 800348a:	4605      	mov	r5, r0
 800348c:	6f73      	ldr	r3, [r6, #116]	; 0x74
 800348e:	0798      	lsls	r0, r3, #30
 8003490:	f57f af37 	bpl.w	8003302 <HAL_RCC_OscConfig+0x1e>
 8003494:	f7fe fd4c 	bl	8001f30 <HAL_GetTick>
 8003498:	1b40      	subs	r0, r0, r5
 800349a:	2802      	cmp	r0, #2
 800349c:	d9f6      	bls.n	800348c <HAL_RCC_OscConfig+0x1a8>
 800349e:	e76e      	b.n	800337e <HAL_RCC_OscConfig+0x9a>
 80034a0:	4b32      	ldr	r3, [pc, #200]	; (800356c <HAL_RCC_OscConfig+0x288>)
 80034a2:	6c1a      	ldr	r2, [r3, #64]	; 0x40
 80034a4:	f012 5280 	ands.w	r2, r2, #268435456	; 0x10000000
 80034a8:	d128      	bne.n	80034fc <HAL_RCC_OscConfig+0x218>
 80034aa:	9201      	str	r2, [sp, #4]
 80034ac:	6c1a      	ldr	r2, [r3, #64]	; 0x40
 80034ae:	f042 5280 	orr.w	r2, r2, #268435456	; 0x10000000
 80034b2:	641a      	str	r2, [r3, #64]	; 0x40
 80034b4:	6c1b      	ldr	r3, [r3, #64]	; 0x40
 80034b6:	f003 5380 	and.w	r3, r3, #268435456	; 0x10000000
 80034ba:	9301      	str	r3, [sp, #4]
 80034bc:	9b01      	ldr	r3, [sp, #4]
 80034be:	2701      	movs	r7, #1
 80034c0:	4d2d      	ldr	r5, [pc, #180]	; (8003578 <HAL_RCC_OscConfig+0x294>)
 80034c2:	682b      	ldr	r3, [r5, #0]
 80034c4:	05d9      	lsls	r1, r3, #23
 80034c6:	d51b      	bpl.n	8003500 <HAL_RCC_OscConfig+0x21c>
 80034c8:	68a3      	ldr	r3, [r4, #8]
 80034ca:	4d28      	ldr	r5, [pc, #160]	; (800356c <HAL_RCC_OscConfig+0x288>)
 80034cc:	2b01      	cmp	r3, #1
 80034ce:	d127      	bne.n	8003520 <HAL_RCC_OscConfig+0x23c>
 80034d0:	6f2b      	ldr	r3, [r5, #112]	; 0x70
 80034d2:	f043 0301 	orr.w	r3, r3, #1
 80034d6:	672b      	str	r3, [r5, #112]	; 0x70
 80034d8:	f7fe fd2a 	bl	8001f30 <HAL_GetTick>
 80034dc:	4e23      	ldr	r6, [pc, #140]	; (800356c <HAL_RCC_OscConfig+0x288>)
 80034de:	4605      	mov	r5, r0
 80034e0:	f241 3888 	movw	r8, #5000	; 0x1388
 80034e4:	6f33      	ldr	r3, [r6, #112]	; 0x70
 80034e6:	079b      	lsls	r3, r3, #30
 80034e8:	d539      	bpl.n	800355e <HAL_RCC_OscConfig+0x27a>
 80034ea:	2f00      	cmp	r7, #0
 80034ec:	f43f af0d 	beq.w	800330a <HAL_RCC_OscConfig+0x26>
 80034f0:	4a1e      	ldr	r2, [pc, #120]	; (800356c <HAL_RCC_OscConfig+0x288>)
 80034f2:	6c13      	ldr	r3, [r2, #64]	; 0x40
 80034f4:	f023 5380 	bic.w	r3, r3, #268435456	; 0x10000000
 80034f8:	6413      	str	r3, [r2, #64]	; 0x40
 80034fa:	e706      	b.n	800330a <HAL_RCC_OscConfig+0x26>
 80034fc:	2700      	movs	r7, #0
 80034fe:	e7df      	b.n	80034c0 <HAL_RCC_OscConfig+0x1dc>
 8003500:	682b      	ldr	r3, [r5, #0]
 8003502:	f443 7380 	orr.w	r3, r3, #256	; 0x100
 8003506:	602b      	str	r3, [r5, #0]
 8003508:	f7fe fd12 	bl	8001f30 <HAL_GetTick>
 800350c:	4606      	mov	r6, r0
 800350e:	682b      	ldr	r3, [r5, #0]
 8003510:	05da      	lsls	r2, r3, #23
 8003512:	d4d9      	bmi.n	80034c8 <HAL_RCC_OscConfig+0x1e4>
 8003514:	f7fe fd0c 	bl	8001f30 <HAL_GetTick>
 8003518:	1b80      	subs	r0, r0, r6
 800351a:	2802      	cmp	r0, #2
 800351c:	d9f7      	bls.n	800350e <HAL_RCC_OscConfig+0x22a>
 800351e:	e72e      	b.n	800337e <HAL_RCC_OscConfig+0x9a>
 8003520:	2b05      	cmp	r3, #5
 8003522:	d104      	bne.n	800352e <HAL_RCC_OscConfig+0x24a>
 8003524:	6f2b      	ldr	r3, [r5, #112]	; 0x70
 8003526:	f043 0304 	orr.w	r3, r3, #4
 800352a:	672b      	str	r3, [r5, #112]	; 0x70
 800352c:	e7d0      	b.n	80034d0 <HAL_RCC_OscConfig+0x1ec>
 800352e:	6f2a      	ldr	r2, [r5, #112]	; 0x70
 8003530:	f022 0201 	bic.w	r2, r2, #1
 8003534:	672a      	str	r2, [r5, #112]	; 0x70
 8003536:	6f2a      	ldr	r2, [r5, #112]	; 0x70
 8003538:	f022 0204 	bic.w	r2, r2, #4
 800353c:	672a      	str	r2, [r5, #112]	; 0x70
 800353e:	2b00      	cmp	r3, #0
 8003540:	d1ca      	bne.n	80034d8 <HAL_RCC_OscConfig+0x1f4>
 8003542:	f7fe fcf5 	bl	8001f30 <HAL_GetTick>
 8003546:	f241 3888 	movw	r8, #5000	; 0x1388
 800354a:	4606      	mov	r6, r0
 800354c:	6f2b      	ldr	r3, [r5, #112]	; 0x70
 800354e:	0798      	lsls	r0, r3, #30
 8003550:	d5cb      	bpl.n	80034ea <HAL_RCC_OscConfig+0x206>
 8003552:	f7fe fced 	bl	8001f30 <HAL_GetTick>
 8003556:	1b80      	subs	r0, r0, r6
 8003558:	4540      	cmp	r0, r8
 800355a:	d9f7      	bls.n	800354c <HAL_RCC_OscConfig+0x268>
 800355c:	e70f      	b.n	800337e <HAL_RCC_OscConfig+0x9a>
 800355e:	f7fe fce7 	bl	8001f30 <HAL_GetTick>
 8003562:	1b40      	subs	r0, r0, r5
 8003564:	4540      	cmp	r0, r8
 8003566:	d9bd      	bls.n	80034e4 <HAL_RCC_OscConfig+0x200>
 8003568:	e709      	b.n	800337e <HAL_RCC_OscConfig+0x9a>
 800356a:	bf00      	nop
 800356c:	40023800 	.word	0x40023800
 8003570:	42470000 	.word	0x42470000
 8003574:	42470e80 	.word	0x42470e80
 8003578:	40007000 	.word	0x40007000
 800357c:	4d3a      	ldr	r5, [pc, #232]	; (8003668 <HAL_RCC_OscConfig+0x384>)
 800357e:	68ab      	ldr	r3, [r5, #8]
 8003580:	f003 030c 	and.w	r3, r3, #12
 8003584:	2b08      	cmp	r3, #8
 8003586:	d03f      	beq.n	8003608 <HAL_RCC_OscConfig+0x324>
 8003588:	4e38      	ldr	r6, [pc, #224]	; (800366c <HAL_RCC_OscConfig+0x388>)
 800358a:	2300      	movs	r3, #0
 800358c:	2802      	cmp	r0, #2
 800358e:	6033      	str	r3, [r6, #0]
 8003590:	d12d      	bne.n	80035ee <HAL_RCC_OscConfig+0x30a>
 8003592:	f7fe fccd 	bl	8001f30 <HAL_GetTick>
 8003596:	4607      	mov	r7, r0
 8003598:	682b      	ldr	r3, [r5, #0]
 800359a:	0199      	lsls	r1, r3, #6
 800359c:	d421      	bmi.n	80035e2 <HAL_RCC_OscConfig+0x2fe>
 800359e:	e9d4 3207 	ldrd	r3, r2, [r4, #28]
 80035a2:	4313      	orrs	r3, r2
 80035a4:	6a62      	ldr	r2, [r4, #36]	; 0x24
 80035a6:	ea43 1382 	orr.w	r3, r3, r2, lsl #6
 80035aa:	6ae2      	ldr	r2, [r4, #44]	; 0x2c
 80035ac:	ea43 6302 	orr.w	r3, r3, r2, lsl #24
 80035b0:	6b22      	ldr	r2, [r4, #48]	; 0x30
 80035b2:	ea43 7302 	orr.w	r3, r3, r2, lsl #28
 80035b6:	6aa2      	ldr	r2, [r4, #40]	; 0x28
 80035b8:	0852      	lsrs	r2, r2, #1
 80035ba:	3a01      	subs	r2, #1
 80035bc:	ea43 4302 	orr.w	r3, r3, r2, lsl #16
 80035c0:	606b      	str	r3, [r5, #4]
 80035c2:	2301      	movs	r3, #1
 80035c4:	6033      	str	r3, [r6, #0]
 80035c6:	f7fe fcb3 	bl	8001f30 <HAL_GetTick>
 80035ca:	4d27      	ldr	r5, [pc, #156]	; (8003668 <HAL_RCC_OscConfig+0x384>)
 80035cc:	4604      	mov	r4, r0
 80035ce:	682b      	ldr	r3, [r5, #0]
 80035d0:	019a      	lsls	r2, r3, #6
 80035d2:	f53f ae9e 	bmi.w	8003312 <HAL_RCC_OscConfig+0x2e>
 80035d6:	f7fe fcab 	bl	8001f30 <HAL_GetTick>
 80035da:	1b00      	subs	r0, r0, r4
 80035dc:	2802      	cmp	r0, #2
 80035de:	d9f6      	bls.n	80035ce <HAL_RCC_OscConfig+0x2ea>
 80035e0:	e6cd      	b.n	800337e <HAL_RCC_OscConfig+0x9a>
 80035e2:	f7fe fca5 	bl	8001f30 <HAL_GetTick>
 80035e6:	1bc0      	subs	r0, r0, r7
 80035e8:	2802      	cmp	r0, #2
 80035ea:	d9d5      	bls.n	8003598 <HAL_RCC_OscConfig+0x2b4>
 80035ec:	e6c7      	b.n	800337e <HAL_RCC_OscConfig+0x9a>
 80035ee:	f7fe fc9f 	bl	8001f30 <HAL_GetTick>
 80035f2:	4604      	mov	r4, r0
 80035f4:	682b      	ldr	r3, [r5, #0]
 80035f6:	019b      	lsls	r3, r3, #6
 80035f8:	f57f ae8b 	bpl.w	8003312 <HAL_RCC_OscConfig+0x2e>
 80035fc:	f7fe fc98 	bl	8001f30 <HAL_GetTick>
 8003600:	1b00      	subs	r0, r0, r4
 8003602:	2802      	cmp	r0, #2
 8003604:	d9f6      	bls.n	80035f4 <HAL_RCC_OscConfig+0x310>
 8003606:	e6ba      	b.n	800337e <HAL_RCC_OscConfig+0x9a>
 8003608:	2801      	cmp	r0, #1
 800360a:	f43f aeb9 	beq.w	8003380 <HAL_RCC_OscConfig+0x9c>
 800360e:	686b      	ldr	r3, [r5, #4]
 8003610:	69e2      	ldr	r2, [r4, #28]
 8003612:	f403 0180 	and.w	r1, r3, #4194304	; 0x400000
 8003616:	4291      	cmp	r1, r2
 8003618:	f47f ae9a 	bne.w	8003350 <HAL_RCC_OscConfig+0x6c>
 800361c:	6a21      	ldr	r1, [r4, #32]
 800361e:	f003 023f 	and.w	r2, r3, #63	; 0x3f
 8003622:	428a      	cmp	r2, r1
 8003624:	f47f ae94 	bne.w	8003350 <HAL_RCC_OscConfig+0x6c>
 8003628:	6a61      	ldr	r1, [r4, #36]	; 0x24
 800362a:	f647 72c0 	movw	r2, #32704	; 0x7fc0
 800362e:	401a      	ands	r2, r3
 8003630:	ebb2 1f81 	cmp.w	r2, r1, lsl #6
 8003634:	f47f ae8c 	bne.w	8003350 <HAL_RCC_OscConfig+0x6c>
 8003638:	6aa2      	ldr	r2, [r4, #40]	; 0x28
 800363a:	0852      	lsrs	r2, r2, #1
 800363c:	f403 3140 	and.w	r1, r3, #196608	; 0x30000
 8003640:	3a01      	subs	r2, #1
 8003642:	ebb1 4f02 	cmp.w	r1, r2, lsl #16
 8003646:	f47f ae83 	bne.w	8003350 <HAL_RCC_OscConfig+0x6c>
 800364a:	6ae1      	ldr	r1, [r4, #44]	; 0x2c
 800364c:	f003 6270 	and.w	r2, r3, #251658240	; 0xf000000
 8003650:	ebb2 6f01 	cmp.w	r2, r1, lsl #24
 8003654:	f47f ae7c 	bne.w	8003350 <HAL_RCC_OscConfig+0x6c>
 8003658:	6b22      	ldr	r2, [r4, #48]	; 0x30
 800365a:	f003 43e0 	and.w	r3, r3, #1879048192	; 0x70000000
 800365e:	ebb3 7f02 	cmp.w	r3, r2, lsl #28
 8003662:	f43f ae56 	beq.w	8003312 <HAL_RCC_OscConfig+0x2e>
 8003666:	e673      	b.n	8003350 <HAL_RCC_OscConfig+0x6c>
 8003668:	40023800 	.word	0x40023800
 800366c:	42470060 	.word	0x42470060

08003670 <TIM_OC1_SetConfig>:
 8003670:	6a03      	ldr	r3, [r0, #32]
 8003672:	f023 0301 	bic.w	r3, r3, #1
 8003676:	6203      	str	r3, [r0, #32]
 8003678:	6a03      	ldr	r3, [r0, #32]
 800367a:	b570      	push	{r4, r5, r6, lr}
 800367c:	6844      	ldr	r4, [r0, #4]
 800367e:	6982      	ldr	r2, [r0, #24]
 8003680:	680d      	ldr	r5, [r1, #0]
 8003682:	f022 0273 	bic.w	r2, r2, #115	; 0x73
 8003686:	432a      	orrs	r2, r5
 8003688:	688d      	ldr	r5, [r1, #8]
 800368a:	f023 0302 	bic.w	r3, r3, #2
 800368e:	432b      	orrs	r3, r5
 8003690:	4d0e      	ldr	r5, [pc, #56]	; (80036cc <TIM_OC1_SetConfig+0x5c>)
 8003692:	42a8      	cmp	r0, r5
 8003694:	d002      	beq.n	800369c <TIM_OC1_SetConfig+0x2c>
 8003696:	4e0e      	ldr	r6, [pc, #56]	; (80036d0 <TIM_OC1_SetConfig+0x60>)
 8003698:	42b0      	cmp	r0, r6
 800369a:	d110      	bne.n	80036be <TIM_OC1_SetConfig+0x4e>
 800369c:	68ce      	ldr	r6, [r1, #12]
 800369e:	f023 0308 	bic.w	r3, r3, #8
 80036a2:	4333      	orrs	r3, r6
 80036a4:	42a8      	cmp	r0, r5
 80036a6:	f023 0304 	bic.w	r3, r3, #4
 80036aa:	d002      	beq.n	80036b2 <TIM_OC1_SetConfig+0x42>
 80036ac:	4d08      	ldr	r5, [pc, #32]	; (80036d0 <TIM_OC1_SetConfig+0x60>)
 80036ae:	42a8      	cmp	r0, r5
 80036b0:	d105      	bne.n	80036be <TIM_OC1_SetConfig+0x4e>
 80036b2:	e9d1 5605 	ldrd	r5, r6, [r1, #20]
 80036b6:	f424 7440 	bic.w	r4, r4, #768	; 0x300
 80036ba:	4335      	orrs	r5, r6
 80036bc:	432c      	orrs	r4, r5
 80036be:	6044      	str	r4, [r0, #4]
 80036c0:	6182      	str	r2, [r0, #24]
 80036c2:	684a      	ldr	r2, [r1, #4]
 80036c4:	6342      	str	r2, [r0, #52]	; 0x34
 80036c6:	6203      	str	r3, [r0, #32]
 80036c8:	bd70      	pop	{r4, r5, r6, pc}
 80036ca:	bf00      	nop
 80036cc:	40010000 	.word	0x40010000
 80036d0:	40010400 	.word	0x40010400

080036d4 <TIM_OC3_SetConfig>:
 80036d4:	6a03      	ldr	r3, [r0, #32]
 80036d6:	f423 7380 	bic.w	r3, r3, #256	; 0x100
 80036da:	6203      	str	r3, [r0, #32]
 80036dc:	6a03      	ldr	r3, [r0, #32]
 80036de:	b570      	push	{r4, r5, r6, lr}
 80036e0:	6844      	ldr	r4, [r0, #4]
 80036e2:	69c2      	ldr	r2, [r0, #28]
 80036e4:	680d      	ldr	r5, [r1, #0]
 80036e6:	f022 0273 	bic.w	r2, r2, #115	; 0x73
 80036ea:	432a      	orrs	r2, r5
 80036ec:	688d      	ldr	r5, [r1, #8]
 80036ee:	f423 7300 	bic.w	r3, r3, #512	; 0x200
 80036f2:	ea43 2305 	orr.w	r3, r3, r5, lsl #8
 80036f6:	4d11      	ldr	r5, [pc, #68]	; (800373c <TIM_OC3_SetConfig+0x68>)
 80036f8:	42a8      	cmp	r0, r5
 80036fa:	d003      	beq.n	8003704 <TIM_OC3_SetConfig+0x30>
 80036fc:	f505 6580 	add.w	r5, r5, #1024	; 0x400
 8003700:	42a8      	cmp	r0, r5
 8003702:	d114      	bne.n	800372e <TIM_OC3_SetConfig+0x5a>
 8003704:	68cd      	ldr	r5, [r1, #12]
 8003706:	f423 6300 	bic.w	r3, r3, #2048	; 0x800
 800370a:	ea43 2305 	orr.w	r3, r3, r5, lsl #8
 800370e:	4d0b      	ldr	r5, [pc, #44]	; (800373c <TIM_OC3_SetConfig+0x68>)
 8003710:	42a8      	cmp	r0, r5
 8003712:	f423 6380 	bic.w	r3, r3, #1024	; 0x400
 8003716:	d003      	beq.n	8003720 <TIM_OC3_SetConfig+0x4c>
 8003718:	f505 6580 	add.w	r5, r5, #1024	; 0x400
 800371c:	42a8      	cmp	r0, r5
 800371e:	d106      	bne.n	800372e <TIM_OC3_SetConfig+0x5a>
 8003720:	e9d1 5605 	ldrd	r5, r6, [r1, #20]
 8003724:	f424 5440 	bic.w	r4, r4, #12288	; 0x3000
 8003728:	4335      	orrs	r5, r6
 800372a:	ea44 1405 	orr.w	r4, r4, r5, lsl #4
 800372e:	6044      	str	r4, [r0, #4]
 8003730:	61c2      	str	r2, [r0, #28]
 8003732:	684a      	ldr	r2, [r1, #4]
 8003734:	63c2      	str	r2, [r0, #60]	; 0x3c
 8003736:	6203      	str	r3, [r0, #32]
 8003738:	bd70      	pop	{r4, r5, r6, pc}
 800373a:	bf00      	nop
 800373c:	40010000 	.word	0x40010000

08003740 <TIM_OC4_SetConfig>:
 8003740:	6a03      	ldr	r3, [r0, #32]
 8003742:	f423 5380 	bic.w	r3, r3, #4096	; 0x1000
 8003746:	6203      	str	r3, [r0, #32]
 8003748:	6a03      	ldr	r3, [r0, #32]
 800374a:	b530      	push	{r4, r5, lr}
 800374c:	6844      	ldr	r4, [r0, #4]
 800374e:	69c2      	ldr	r2, [r0, #28]
 8003750:	680d      	ldr	r5, [r1, #0]
 8003752:	f422 42e6 	bic.w	r2, r2, #29440	; 0x7300
 8003756:	ea42 2205 	orr.w	r2, r2, r5, lsl #8
 800375a:	688d      	ldr	r5, [r1, #8]
 800375c:	f423 5300 	bic.w	r3, r3, #8192	; 0x2000
 8003760:	ea43 3305 	orr.w	r3, r3, r5, lsl #12
 8003764:	4d08      	ldr	r5, [pc, #32]	; (8003788 <TIM_OC4_SetConfig+0x48>)
 8003766:	42a8      	cmp	r0, r5
 8003768:	d003      	beq.n	8003772 <TIM_OC4_SetConfig+0x32>
 800376a:	f505 6580 	add.w	r5, r5, #1024	; 0x400
 800376e:	42a8      	cmp	r0, r5
 8003770:	d104      	bne.n	800377c <TIM_OC4_SetConfig+0x3c>
 8003772:	694d      	ldr	r5, [r1, #20]
 8003774:	f424 4480 	bic.w	r4, r4, #16384	; 0x4000
 8003778:	ea44 1485 	orr.w	r4, r4, r5, lsl #6
 800377c:	6044      	str	r4, [r0, #4]
 800377e:	61c2      	str	r2, [r0, #28]
 8003780:	684a      	ldr	r2, [r1, #4]
 8003782:	6402      	str	r2, [r0, #64]	; 0x40
 8003784:	6203      	str	r3, [r0, #32]
 8003786:	bd30      	pop	{r4, r5, pc}
 8003788:	40010000 	.word	0x40010000

0800378c <HAL_TIM_Base_Start>:
 800378c:	f890 303d 	ldrb.w	r3, [r0, #61]	; 0x3d
 8003790:	2b01      	cmp	r3, #1
 8003792:	d12c      	bne.n	80037ee <HAL_TIM_Base_Start+0x62>
 8003794:	2302      	movs	r3, #2
 8003796:	4a17      	ldr	r2, [pc, #92]	; (80037f4 <HAL_TIM_Base_Start+0x68>)
 8003798:	f880 303d 	strb.w	r3, [r0, #61]	; 0x3d
 800379c:	6803      	ldr	r3, [r0, #0]
 800379e:	4293      	cmp	r3, r2
 80037a0:	d01a      	beq.n	80037d8 <HAL_TIM_Base_Start+0x4c>
 80037a2:	f1b3 4f80 	cmp.w	r3, #1073741824	; 0x40000000
 80037a6:	d017      	beq.n	80037d8 <HAL_TIM_Base_Start+0x4c>
 80037a8:	f5a2 427c 	sub.w	r2, r2, #64512	; 0xfc00
 80037ac:	4293      	cmp	r3, r2
 80037ae:	d013      	beq.n	80037d8 <HAL_TIM_Base_Start+0x4c>
 80037b0:	f502 6280 	add.w	r2, r2, #1024	; 0x400
 80037b4:	4293      	cmp	r3, r2
 80037b6:	d00f      	beq.n	80037d8 <HAL_TIM_Base_Start+0x4c>
 80037b8:	f502 6280 	add.w	r2, r2, #1024	; 0x400
 80037bc:	4293      	cmp	r3, r2
 80037be:	d00b      	beq.n	80037d8 <HAL_TIM_Base_Start+0x4c>
 80037c0:	f502 4278 	add.w	r2, r2, #63488	; 0xf800
 80037c4:	4293      	cmp	r3, r2
 80037c6:	d007      	beq.n	80037d8 <HAL_TIM_Base_Start+0x4c>
 80037c8:	f502 5270 	add.w	r2, r2, #15360	; 0x3c00
 80037cc:	4293      	cmp	r3, r2
 80037ce:	d003      	beq.n	80037d8 <HAL_TIM_Base_Start+0x4c>
 80037d0:	f5a2 3294 	sub.w	r2, r2, #75776	; 0x12800
 80037d4:	4293      	cmp	r3, r2
 80037d6:	d104      	bne.n	80037e2 <HAL_TIM_Base_Start+0x56>
 80037d8:	689a      	ldr	r2, [r3, #8]
 80037da:	f002 0207 	and.w	r2, r2, #7
 80037de:	2a06      	cmp	r2, #6
 80037e0:	d003      	beq.n	80037ea <HAL_TIM_Base_Start+0x5e>
 80037e2:	681a      	ldr	r2, [r3, #0]
 80037e4:	f042 0201 	orr.w	r2, r2, #1
 80037e8:	601a      	str	r2, [r3, #0]
 80037ea:	2000      	movs	r0, #0
 80037ec:	4770      	bx	lr
 80037ee:	2001      	movs	r0, #1
 80037f0:	4770      	bx	lr
 80037f2:	bf00      	nop
 80037f4:	40010000 	.word	0x40010000

080037f8 <HAL_TIM_Base_Start_IT>:
 80037f8:	f890 303d 	ldrb.w	r3, [r0, #61]	; 0x3d
 80037fc:	2b01      	cmp	r3, #1
 80037fe:	d130      	bne.n	8003862 <HAL_TIM_Base_Start_IT+0x6a>
 8003800:	2302      	movs	r3, #2
 8003802:	f880 303d 	strb.w	r3, [r0, #61]	; 0x3d
 8003806:	6803      	ldr	r3, [r0, #0]
 8003808:	68da      	ldr	r2, [r3, #12]
 800380a:	f042 0201 	orr.w	r2, r2, #1
 800380e:	60da      	str	r2, [r3, #12]
 8003810:	4a15      	ldr	r2, [pc, #84]	; (8003868 <HAL_TIM_Base_Start_IT+0x70>)
 8003812:	4293      	cmp	r3, r2
 8003814:	d01a      	beq.n	800384c <HAL_TIM_Base_Start_IT+0x54>
 8003816:	f1b3 4f80 	cmp.w	r3, #1073741824	; 0x40000000
 800381a:	d017      	beq.n	800384c <HAL_TIM_Base_Start_IT+0x54>
 800381c:	f5a2 427c 	sub.w	r2, r2, #64512	; 0xfc00
 8003820:	4293      	cmp	r3, r2
 8003822:	d013      	beq.n	800384c <HAL_TIM_Base_Start_IT+0x54>
 8003824:	f502 6280 	add.w	r2, r2, #1024	; 0x400
 8003828:	4293      	cmp	r3, r2
 800382a:	d00f      	beq.n	800384c <HAL_TIM_Base_Start_IT+0x54>
 800382c:	f502 6280 	add.w	r2, r2, #1024	; 0x400
 8003830:	4293      	cmp	r3, r2
 8003832:	d00b      	beq.n	800384c <HAL_TIM_Base_Start_IT+0x54>
 8003834:	f502 4278 	add.w	r2, r2, #63488	; 0xf800
 8003838:	4293      	cmp	r3, r2
 800383a:	d007      	beq.n	800384c <HAL_TIM_Base_Start_IT+0x54>
 800383c:	f502 5270 	add.w	r2, r2, #15360	; 0x3c00
 8003840:	4293      	cmp	r3, r2
 8003842:	d003      	beq.n	800384c <HAL_TIM_Base_Start_IT+0x54>
 8003844:	f5a2 3294 	sub.w	r2, r2, #75776	; 0x12800
 8003848:	4293      	cmp	r3, r2
 800384a:	d104      	bne.n	8003856 <HAL_TIM_Base_Start_IT+0x5e>
 800384c:	689a      	ldr	r2, [r3, #8]
 800384e:	f002 0207 	and.w	r2, r2, #7
 8003852:	2a06      	cmp	r2, #6
 8003854:	d003      	beq.n	800385e <HAL_TIM_Base_Start_IT+0x66>
 8003856:	681a      	ldr	r2, [r3, #0]
 8003858:	f042 0201 	orr.w	r2, r2, #1
 800385c:	601a      	str	r2, [r3, #0]
 800385e:	2000      	movs	r0, #0
 8003860:	4770      	bx	lr
 8003862:	2001      	movs	r0, #1
 8003864:	4770      	bx	lr
 8003866:	bf00      	nop
 8003868:	40010000 	.word	0x40010000

0800386c <HAL_TIM_PWM_MspInit>:
 800386c:	4770      	bx	lr

0800386e <HAL_TIM_OC_DelayElapsedCallback>:
 800386e:	4770      	bx	lr

08003870 <HAL_TIM_IC_CaptureCallback>:
 8003870:	4770      	bx	lr

08003872 <HAL_TIM_PWM_PulseFinishedCallback>:
 8003872:	4770      	bx	lr

08003874 <HAL_TIM_TriggerCallback>:
 8003874:	4770      	bx	lr

08003876 <HAL_TIM_IRQHandler>:
 8003876:	6803      	ldr	r3, [r0, #0]
 8003878:	691a      	ldr	r2, [r3, #16]
 800387a:	0791      	lsls	r1, r2, #30
 800387c:	b510      	push	{r4, lr}
 800387e:	4604      	mov	r4, r0
 8003880:	d50e      	bpl.n	80038a0 <HAL_TIM_IRQHandler+0x2a>
 8003882:	68da      	ldr	r2, [r3, #12]
 8003884:	0792      	lsls	r2, r2, #30
 8003886:	d50b      	bpl.n	80038a0 <HAL_TIM_IRQHandler+0x2a>
 8003888:	f06f 0202 	mvn.w	r2, #2
 800388c:	611a      	str	r2, [r3, #16]
 800388e:	2201      	movs	r2, #1
 8003890:	7702      	strb	r2, [r0, #28]
 8003892:	699b      	ldr	r3, [r3, #24]
 8003894:	079b      	lsls	r3, r3, #30
 8003896:	d077      	beq.n	8003988 <HAL_TIM_IRQHandler+0x112>
 8003898:	f7ff ffea 	bl	8003870 <HAL_TIM_IC_CaptureCallback>
 800389c:	2300      	movs	r3, #0
 800389e:	7723      	strb	r3, [r4, #28]
 80038a0:	6823      	ldr	r3, [r4, #0]
 80038a2:	691a      	ldr	r2, [r3, #16]
 80038a4:	0750      	lsls	r0, r2, #29
 80038a6:	d510      	bpl.n	80038ca <HAL_TIM_IRQHandler+0x54>
 80038a8:	68da      	ldr	r2, [r3, #12]
 80038aa:	0751      	lsls	r1, r2, #29
 80038ac:	d50d      	bpl.n	80038ca <HAL_TIM_IRQHandler+0x54>
 80038ae:	f06f 0204 	mvn.w	r2, #4
 80038b2:	611a      	str	r2, [r3, #16]
 80038b4:	2202      	movs	r2, #2
 80038b6:	7722      	strb	r2, [r4, #28]
 80038b8:	699b      	ldr	r3, [r3, #24]
 80038ba:	f413 7f40 	tst.w	r3, #768	; 0x300
 80038be:	4620      	mov	r0, r4
 80038c0:	d068      	beq.n	8003994 <HAL_TIM_IRQHandler+0x11e>
 80038c2:	f7ff ffd5 	bl	8003870 <HAL_TIM_IC_CaptureCallback>
 80038c6:	2300      	movs	r3, #0
 80038c8:	7723      	strb	r3, [r4, #28]
 80038ca:	6823      	ldr	r3, [r4, #0]
 80038cc:	691a      	ldr	r2, [r3, #16]
 80038ce:	0712      	lsls	r2, r2, #28
 80038d0:	d50f      	bpl.n	80038f2 <HAL_TIM_IRQHandler+0x7c>
 80038d2:	68da      	ldr	r2, [r3, #12]
 80038d4:	0710      	lsls	r0, r2, #28
 80038d6:	d50c      	bpl.n	80038f2 <HAL_TIM_IRQHandler+0x7c>
 80038d8:	f06f 0208 	mvn.w	r2, #8
 80038dc:	611a      	str	r2, [r3, #16]
 80038de:	2204      	movs	r2, #4
 80038e0:	7722      	strb	r2, [r4, #28]
 80038e2:	69db      	ldr	r3, [r3, #28]
 80038e4:	0799      	lsls	r1, r3, #30
 80038e6:	4620      	mov	r0, r4
 80038e8:	d05a      	beq.n	80039a0 <HAL_TIM_IRQHandler+0x12a>
 80038ea:	f7ff ffc1 	bl	8003870 <HAL_TIM_IC_CaptureCallback>
 80038ee:	2300      	movs	r3, #0
 80038f0:	7723      	strb	r3, [r4, #28]
 80038f2:	6823      	ldr	r3, [r4, #0]
 80038f4:	691a      	ldr	r2, [r3, #16]
 80038f6:	06d2      	lsls	r2, r2, #27
 80038f8:	d510      	bpl.n	800391c <HAL_TIM_IRQHandler+0xa6>
 80038fa:	68da      	ldr	r2, [r3, #12]
 80038fc:	06d0      	lsls	r0, r2, #27
 80038fe:	d50d      	bpl.n	800391c <HAL_TIM_IRQHandler+0xa6>
 8003900:	f06f 0210 	mvn.w	r2, #16
 8003904:	611a      	str	r2, [r3, #16]
 8003906:	2208      	movs	r2, #8
 8003908:	7722      	strb	r2, [r4, #28]
 800390a:	69db      	ldr	r3, [r3, #28]
 800390c:	f413 7f40 	tst.w	r3, #768	; 0x300
 8003910:	4620      	mov	r0, r4
 8003912:	d04b      	beq.n	80039ac <HAL_TIM_IRQHandler+0x136>
 8003914:	f7ff ffac 	bl	8003870 <HAL_TIM_IC_CaptureCallback>
 8003918:	2300      	movs	r3, #0
 800391a:	7723      	strb	r3, [r4, #28]
 800391c:	6823      	ldr	r3, [r4, #0]
 800391e:	691a      	ldr	r2, [r3, #16]
 8003920:	07d1      	lsls	r1, r2, #31
 8003922:	d508      	bpl.n	8003936 <HAL_TIM_IRQHandler+0xc0>
 8003924:	68da      	ldr	r2, [r3, #12]
 8003926:	07d2      	lsls	r2, r2, #31
 8003928:	d505      	bpl.n	8003936 <HAL_TIM_IRQHandler+0xc0>
 800392a:	f06f 0201 	mvn.w	r2, #1
 800392e:	611a      	str	r2, [r3, #16]
 8003930:	4620      	mov	r0, r4
 8003932:	f7fd fc49 	bl	80011c8 <HAL_TIM_PeriodElapsedCallback>
 8003936:	6823      	ldr	r3, [r4, #0]
 8003938:	691a      	ldr	r2, [r3, #16]
 800393a:	0610      	lsls	r0, r2, #24
 800393c:	d508      	bpl.n	8003950 <HAL_TIM_IRQHandler+0xda>
 800393e:	68da      	ldr	r2, [r3, #12]
 8003940:	0611      	lsls	r1, r2, #24
 8003942:	d505      	bpl.n	8003950 <HAL_TIM_IRQHandler+0xda>
 8003944:	f06f 0280 	mvn.w	r2, #128	; 0x80
 8003948:	611a      	str	r2, [r3, #16]
 800394a:	4620      	mov	r0, r4
 800394c:	f000 fb25 	bl	8003f9a <HAL_TIMEx_BreakCallback>
 8003950:	6823      	ldr	r3, [r4, #0]
 8003952:	691a      	ldr	r2, [r3, #16]
 8003954:	0652      	lsls	r2, r2, #25
 8003956:	d508      	bpl.n	800396a <HAL_TIM_IRQHandler+0xf4>
 8003958:	68da      	ldr	r2, [r3, #12]
 800395a:	0650      	lsls	r0, r2, #25
 800395c:	d505      	bpl.n	800396a <HAL_TIM_IRQHandler+0xf4>
 800395e:	f06f 0240 	mvn.w	r2, #64	; 0x40
 8003962:	611a      	str	r2, [r3, #16]
 8003964:	4620      	mov	r0, r4
 8003966:	f7ff ff85 	bl	8003874 <HAL_TIM_TriggerCallback>
 800396a:	6823      	ldr	r3, [r4, #0]
 800396c:	691a      	ldr	r2, [r3, #16]
 800396e:	0691      	lsls	r1, r2, #26
 8003970:	d522      	bpl.n	80039b8 <HAL_TIM_IRQHandler+0x142>
 8003972:	68da      	ldr	r2, [r3, #12]
 8003974:	0692      	lsls	r2, r2, #26
 8003976:	d51f      	bpl.n	80039b8 <HAL_TIM_IRQHandler+0x142>
 8003978:	f06f 0220 	mvn.w	r2, #32
 800397c:	4620      	mov	r0, r4
 800397e:	611a      	str	r2, [r3, #16]
 8003980:	e8bd 4010 	ldmia.w	sp!, {r4, lr}
 8003984:	f000 bb08 	b.w	8003f98 <HAL_TIMEx_CommutCallback>
 8003988:	f7ff ff71 	bl	800386e <HAL_TIM_OC_DelayElapsedCallback>
 800398c:	4620      	mov	r0, r4
 800398e:	f7ff ff70 	bl	8003872 <HAL_TIM_PWM_PulseFinishedCallback>
 8003992:	e783      	b.n	800389c <HAL_TIM_IRQHandler+0x26>
 8003994:	f7ff ff6b 	bl	800386e <HAL_TIM_OC_DelayElapsedCallback>
 8003998:	4620      	mov	r0, r4
 800399a:	f7ff ff6a 	bl	8003872 <HAL_TIM_PWM_PulseFinishedCallback>
 800399e:	e792      	b.n	80038c6 <HAL_TIM_IRQHandler+0x50>
 80039a0:	f7ff ff65 	bl	800386e <HAL_TIM_OC_DelayElapsedCallback>
 80039a4:	4620      	mov	r0, r4
 80039a6:	f7ff ff64 	bl	8003872 <HAL_TIM_PWM_PulseFinishedCallback>
 80039aa:	e7a0      	b.n	80038ee <HAL_TIM_IRQHandler+0x78>
 80039ac:	f7ff ff5f 	bl	800386e <HAL_TIM_OC_DelayElapsedCallback>
 80039b0:	4620      	mov	r0, r4
 80039b2:	f7ff ff5e 	bl	8003872 <HAL_TIM_PWM_PulseFinishedCallback>
 80039b6:	e7af      	b.n	8003918 <HAL_TIM_IRQHandler+0xa2>
 80039b8:	bd10      	pop	{r4, pc}
	...

080039bc <TIM_Base_SetConfig>:
 80039bc:	4a30      	ldr	r2, [pc, #192]	; (8003a80 <TIM_Base_SetConfig+0xc4>)
 80039be:	6803      	ldr	r3, [r0, #0]
 80039c0:	4290      	cmp	r0, r2
 80039c2:	d012      	beq.n	80039ea <TIM_Base_SetConfig+0x2e>
 80039c4:	f1b0 4f80 	cmp.w	r0, #1073741824	; 0x40000000
 80039c8:	d00f      	beq.n	80039ea <TIM_Base_SetConfig+0x2e>
 80039ca:	f5a2 427c 	sub.w	r2, r2, #64512	; 0xfc00
 80039ce:	4290      	cmp	r0, r2
 80039d0:	d00b      	beq.n	80039ea <TIM_Base_SetConfig+0x2e>
 80039d2:	f502 6280 	add.w	r2, r2, #1024	; 0x400
 80039d6:	4290      	cmp	r0, r2
 80039d8:	d007      	beq.n	80039ea <TIM_Base_SetConfig+0x2e>
 80039da:	f502 6280 	add.w	r2, r2, #1024	; 0x400
 80039de:	4290      	cmp	r0, r2
 80039e0:	d003      	beq.n	80039ea <TIM_Base_SetConfig+0x2e>
 80039e2:	f502 4278 	add.w	r2, r2, #63488	; 0xf800
 80039e6:	4290      	cmp	r0, r2
 80039e8:	d119      	bne.n	8003a1e <TIM_Base_SetConfig+0x62>
 80039ea:	684a      	ldr	r2, [r1, #4]
 80039ec:	f023 0370 	bic.w	r3, r3, #112	; 0x70
 80039f0:	4313      	orrs	r3, r2
 80039f2:	4a23      	ldr	r2, [pc, #140]	; (8003a80 <TIM_Base_SetConfig+0xc4>)
 80039f4:	4290      	cmp	r0, r2
 80039f6:	d029      	beq.n	8003a4c <TIM_Base_SetConfig+0x90>
 80039f8:	f1b0 4f80 	cmp.w	r0, #1073741824	; 0x40000000
 80039fc:	d026      	beq.n	8003a4c <TIM_Base_SetConfig+0x90>
 80039fe:	f5a2 427c 	sub.w	r2, r2, #64512	; 0xfc00
 8003a02:	4290      	cmp	r0, r2
 8003a04:	d022      	beq.n	8003a4c <TIM_Base_SetConfig+0x90>
 8003a06:	f502 6280 	add.w	r2, r2, #1024	; 0x400
 8003a0a:	4290      	cmp	r0, r2
 8003a0c:	d01e      	beq.n	8003a4c <TIM_Base_SetConfig+0x90>
 8003a0e:	f502 6280 	add.w	r2, r2, #1024	; 0x400
 8003a12:	4290      	cmp	r0, r2
 8003a14:	d01a      	beq.n	8003a4c <TIM_Base_SetConfig+0x90>
 8003a16:	f502 4278 	add.w	r2, r2, #63488	; 0xf800
 8003a1a:	4290      	cmp	r0, r2
 8003a1c:	d016      	beq.n	8003a4c <TIM_Base_SetConfig+0x90>
 8003a1e:	4a19      	ldr	r2, [pc, #100]	; (8003a84 <TIM_Base_SetConfig+0xc8>)
 8003a20:	4290      	cmp	r0, r2
 8003a22:	d013      	beq.n	8003a4c <TIM_Base_SetConfig+0x90>
 8003a24:	f502 6280 	add.w	r2, r2, #1024	; 0x400
 8003a28:	4290      	cmp	r0, r2
 8003a2a:	d00f      	beq.n	8003a4c <TIM_Base_SetConfig+0x90>
 8003a2c:	f502 6280 	add.w	r2, r2, #1024	; 0x400
 8003a30:	4290      	cmp	r0, r2
 8003a32:	d00b      	beq.n	8003a4c <TIM_Base_SetConfig+0x90>
 8003a34:	f5a2 3298 	sub.w	r2, r2, #77824	; 0x13000
 8003a38:	4290      	cmp	r0, r2
 8003a3a:	d007      	beq.n	8003a4c <TIM_Base_SetConfig+0x90>
 8003a3c:	f502 6280 	add.w	r2, r2, #1024	; 0x400
 8003a40:	4290      	cmp	r0, r2
 8003a42:	d003      	beq.n	8003a4c <TIM_Base_SetConfig+0x90>
 8003a44:	f502 6280 	add.w	r2, r2, #1024	; 0x400
 8003a48:	4290      	cmp	r0, r2
 8003a4a:	d103      	bne.n	8003a54 <TIM_Base_SetConfig+0x98>
 8003a4c:	68ca      	ldr	r2, [r1, #12]
 8003a4e:	f423 7340 	bic.w	r3, r3, #768	; 0x300
 8003a52:	4313      	orrs	r3, r2
 8003a54:	694a      	ldr	r2, [r1, #20]
 8003a56:	f023 0380 	bic.w	r3, r3, #128	; 0x80
 8003a5a:	4313      	orrs	r3, r2
 8003a5c:	6003      	str	r3, [r0, #0]
 8003a5e:	688b      	ldr	r3, [r1, #8]
 8003a60:	62c3      	str	r3, [r0, #44]	; 0x2c
 8003a62:	680b      	ldr	r3, [r1, #0]
 8003a64:	6283      	str	r3, [r0, #40]	; 0x28
 8003a66:	4b06      	ldr	r3, [pc, #24]	; (8003a80 <TIM_Base_SetConfig+0xc4>)
 8003a68:	4298      	cmp	r0, r3
 8003a6a:	d003      	beq.n	8003a74 <TIM_Base_SetConfig+0xb8>
 8003a6c:	f503 6380 	add.w	r3, r3, #1024	; 0x400
 8003a70:	4298      	cmp	r0, r3
 8003a72:	d101      	bne.n	8003a78 <TIM_Base_SetConfig+0xbc>
 8003a74:	690b      	ldr	r3, [r1, #16]
 8003a76:	6303      	str	r3, [r0, #48]	; 0x30
 8003a78:	2301      	movs	r3, #1
 8003a7a:	6143      	str	r3, [r0, #20]
 8003a7c:	4770      	bx	lr
 8003a7e:	bf00      	nop
 8003a80:	40010000 	.word	0x40010000
 8003a84:	40014000 	.word	0x40014000

08003a88 <HAL_TIM_Base_Init>:
 8003a88:	b510      	push	{r4, lr}
 8003a8a:	4604      	mov	r4, r0
 8003a8c:	b330      	cbz	r0, 8003adc <HAL_TIM_Base_Init+0x54>
 8003a8e:	f890 303d 	ldrb.w	r3, [r0, #61]	; 0x3d
 8003a92:	f003 02ff 	and.w	r2, r3, #255	; 0xff
 8003a96:	b91b      	cbnz	r3, 8003aa0 <HAL_TIM_Base_Init+0x18>
 8003a98:	f880 203c 	strb.w	r2, [r0, #60]	; 0x3c
 8003a9c:	f7fe f800 	bl	8001aa0 <HAL_TIM_Base_MspInit>
 8003aa0:	2302      	movs	r3, #2
 8003aa2:	6820      	ldr	r0, [r4, #0]
 8003aa4:	f884 303d 	strb.w	r3, [r4, #61]	; 0x3d
 8003aa8:	1d21      	adds	r1, r4, #4
 8003aaa:	f7ff ff87 	bl	80039bc <TIM_Base_SetConfig>
 8003aae:	2301      	movs	r3, #1
 8003ab0:	f884 3046 	strb.w	r3, [r4, #70]	; 0x46
 8003ab4:	2000      	movs	r0, #0
 8003ab6:	f884 303e 	strb.w	r3, [r4, #62]	; 0x3e
 8003aba:	f884 303f 	strb.w	r3, [r4, #63]	; 0x3f
 8003abe:	f884 3040 	strb.w	r3, [r4, #64]	; 0x40
 8003ac2:	f884 3041 	strb.w	r3, [r4, #65]	; 0x41
 8003ac6:	f884 3042 	strb.w	r3, [r4, #66]	; 0x42
 8003aca:	f884 3043 	strb.w	r3, [r4, #67]	; 0x43
 8003ace:	f884 3044 	strb.w	r3, [r4, #68]	; 0x44
 8003ad2:	f884 3045 	strb.w	r3, [r4, #69]	; 0x45
 8003ad6:	f884 303d 	strb.w	r3, [r4, #61]	; 0x3d
 8003ada:	bd10      	pop	{r4, pc}
 8003adc:	2001      	movs	r0, #1
 8003ade:	e7fc      	b.n	8003ada <HAL_TIM_Base_Init+0x52>

08003ae0 <HAL_TIM_PWM_Init>:
 8003ae0:	b510      	push	{r4, lr}
 8003ae2:	4604      	mov	r4, r0
 8003ae4:	b330      	cbz	r0, 8003b34 <HAL_TIM_PWM_Init+0x54>
 8003ae6:	f890 303d 	ldrb.w	r3, [r0, #61]	; 0x3d
 8003aea:	f003 02ff 	and.w	r2, r3, #255	; 0xff
 8003aee:	b91b      	cbnz	r3, 8003af8 <HAL_TIM_PWM_Init+0x18>
 8003af0:	f880 203c 	strb.w	r2, [r0, #60]	; 0x3c
 8003af4:	f7ff feba 	bl	800386c <HAL_TIM_PWM_MspInit>
 8003af8:	2302      	movs	r3, #2
 8003afa:	6820      	ldr	r0, [r4, #0]
 8003afc:	f884 303d 	strb.w	r3, [r4, #61]	; 0x3d
 8003b00:	1d21      	adds	r1, r4, #4
 8003b02:	f7ff ff5b 	bl	80039bc <TIM_Base_SetConfig>
 8003b06:	2301      	movs	r3, #1
 8003b08:	f884 3046 	strb.w	r3, [r4, #70]	; 0x46
 8003b0c:	2000      	movs	r0, #0
 8003b0e:	f884 303e 	strb.w	r3, [r4, #62]	; 0x3e
 8003b12:	f884 303f 	strb.w	r3, [r4, #63]	; 0x3f
 8003b16:	f884 3040 	strb.w	r3, [r4, #64]	; 0x40
 8003b1a:	f884 3041 	strb.w	r3, [r4, #65]	; 0x41
 8003b1e:	f884 3042 	strb.w	r3, [r4, #66]	; 0x42
 8003b22:	f884 3043 	strb.w	r3, [r4, #67]	; 0x43
 8003b26:	f884 3044 	strb.w	r3, [r4, #68]	; 0x44
 8003b2a:	f884 3045 	strb.w	r3, [r4, #69]	; 0x45
 8003b2e:	f884 303d 	strb.w	r3, [r4, #61]	; 0x3d
 8003b32:	bd10      	pop	{r4, pc}
 8003b34:	2001      	movs	r0, #1
 8003b36:	e7fc      	b.n	8003b32 <HAL_TIM_PWM_Init+0x52>

08003b38 <TIM_OC2_SetConfig>:
 8003b38:	6a03      	ldr	r3, [r0, #32]
 8003b3a:	f023 0310 	bic.w	r3, r3, #16
 8003b3e:	6203      	str	r3, [r0, #32]
 8003b40:	6a03      	ldr	r3, [r0, #32]
 8003b42:	b570      	push	{r4, r5, r6, lr}
 8003b44:	6844      	ldr	r4, [r0, #4]
 8003b46:	6982      	ldr	r2, [r0, #24]
 8003b48:	680d      	ldr	r5, [r1, #0]
 8003b4a:	f422 42e6 	bic.w	r2, r2, #29440	; 0x7300
 8003b4e:	ea42 2205 	orr.w	r2, r2, r5, lsl #8
 8003b52:	688d      	ldr	r5, [r1, #8]
 8003b54:	f023 0320 	bic.w	r3, r3, #32
 8003b58:	ea43 1305 	orr.w	r3, r3, r5, lsl #4
 8003b5c:	4d10      	ldr	r5, [pc, #64]	; (8003ba0 <TIM_OC2_SetConfig+0x68>)
 8003b5e:	42a8      	cmp	r0, r5
 8003b60:	d003      	beq.n	8003b6a <TIM_OC2_SetConfig+0x32>
 8003b62:	f505 6580 	add.w	r5, r5, #1024	; 0x400
 8003b66:	42a8      	cmp	r0, r5
 8003b68:	d114      	bne.n	8003b94 <TIM_OC2_SetConfig+0x5c>
 8003b6a:	68cd      	ldr	r5, [r1, #12]
 8003b6c:	f023 0380 	bic.w	r3, r3, #128	; 0x80
 8003b70:	ea43 1305 	orr.w	r3, r3, r5, lsl #4
 8003b74:	4d0a      	ldr	r5, [pc, #40]	; (8003ba0 <TIM_OC2_SetConfig+0x68>)
 8003b76:	42a8      	cmp	r0, r5
 8003b78:	f023 0340 	bic.w	r3, r3, #64	; 0x40
 8003b7c:	d003      	beq.n	8003b86 <TIM_OC2_SetConfig+0x4e>
 8003b7e:	f505 6580 	add.w	r5, r5, #1024	; 0x400
 8003b82:	42a8      	cmp	r0, r5
 8003b84:	d106      	bne.n	8003b94 <TIM_OC2_SetConfig+0x5c>
 8003b86:	e9d1 5605 	ldrd	r5, r6, [r1, #20]
 8003b8a:	f424 6440 	bic.w	r4, r4, #3072	; 0xc00
 8003b8e:	4335      	orrs	r5, r6
 8003b90:	ea44 0485 	orr.w	r4, r4, r5, lsl #2
 8003b94:	6044      	str	r4, [r0, #4]
 8003b96:	6182      	str	r2, [r0, #24]
 8003b98:	684a      	ldr	r2, [r1, #4]
 8003b9a:	6382      	str	r2, [r0, #56]	; 0x38
 8003b9c:	6203      	str	r3, [r0, #32]
 8003b9e:	bd70      	pop	{r4, r5, r6, pc}
 8003ba0:	40010000 	.word	0x40010000

08003ba4 <HAL_TIM_PWM_ConfigChannel>:
 8003ba4:	b570      	push	{r4, r5, r6, lr}
 8003ba6:	f890 303c 	ldrb.w	r3, [r0, #60]	; 0x3c
 8003baa:	2b01      	cmp	r3, #1
 8003bac:	4605      	mov	r5, r0
 8003bae:	4614      	mov	r4, r2
 8003bb0:	d054      	beq.n	8003c5c <HAL_TIM_PWM_ConfigChannel+0xb8>
 8003bb2:	2201      	movs	r2, #1
 8003bb4:	2c08      	cmp	r4, #8
 8003bb6:	f880 203c 	strb.w	r2, [r0, #60]	; 0x3c
 8003bba:	d03e      	beq.n	8003c3a <HAL_TIM_PWM_ConfigChannel+0x96>
 8003bbc:	d807      	bhi.n	8003bce <HAL_TIM_PWM_ConfigChannel+0x2a>
 8003bbe:	b1cc      	cbz	r4, 8003bf4 <HAL_TIM_PWM_ConfigChannel+0x50>
 8003bc0:	2c04      	cmp	r4, #4
 8003bc2:	d029      	beq.n	8003c18 <HAL_TIM_PWM_ConfigChannel+0x74>
 8003bc4:	2300      	movs	r3, #0
 8003bc6:	f885 303c 	strb.w	r3, [r5, #60]	; 0x3c
 8003bca:	4610      	mov	r0, r2
 8003bcc:	bd70      	pop	{r4, r5, r6, pc}
 8003bce:	2c0c      	cmp	r4, #12
 8003bd0:	d1f8      	bne.n	8003bc4 <HAL_TIM_PWM_ConfigChannel+0x20>
 8003bd2:	6800      	ldr	r0, [r0, #0]
 8003bd4:	f7ff fdb4 	bl	8003740 <TIM_OC4_SetConfig>
 8003bd8:	682b      	ldr	r3, [r5, #0]
 8003bda:	6909      	ldr	r1, [r1, #16]
 8003bdc:	69da      	ldr	r2, [r3, #28]
 8003bde:	f442 6200 	orr.w	r2, r2, #2048	; 0x800
 8003be2:	61da      	str	r2, [r3, #28]
 8003be4:	69da      	ldr	r2, [r3, #28]
 8003be6:	f422 6280 	bic.w	r2, r2, #1024	; 0x400
 8003bea:	61da      	str	r2, [r3, #28]
 8003bec:	69da      	ldr	r2, [r3, #28]
 8003bee:	ea42 2201 	orr.w	r2, r2, r1, lsl #8
 8003bf2:	e031      	b.n	8003c58 <HAL_TIM_PWM_ConfigChannel+0xb4>
 8003bf4:	6800      	ldr	r0, [r0, #0]
 8003bf6:	f7ff fd3b 	bl	8003670 <TIM_OC1_SetConfig>
 8003bfa:	682b      	ldr	r3, [r5, #0]
 8003bfc:	6909      	ldr	r1, [r1, #16]
 8003bfe:	699a      	ldr	r2, [r3, #24]
 8003c00:	f042 0208 	orr.w	r2, r2, #8
 8003c04:	619a      	str	r2, [r3, #24]
 8003c06:	699a      	ldr	r2, [r3, #24]
 8003c08:	f022 0204 	bic.w	r2, r2, #4
 8003c0c:	619a      	str	r2, [r3, #24]
 8003c0e:	699a      	ldr	r2, [r3, #24]
 8003c10:	430a      	orrs	r2, r1
 8003c12:	619a      	str	r2, [r3, #24]
 8003c14:	2200      	movs	r2, #0
 8003c16:	e7d5      	b.n	8003bc4 <HAL_TIM_PWM_ConfigChannel+0x20>
 8003c18:	6800      	ldr	r0, [r0, #0]
 8003c1a:	f7ff ff8d 	bl	8003b38 <TIM_OC2_SetConfig>
 8003c1e:	682b      	ldr	r3, [r5, #0]
 8003c20:	6909      	ldr	r1, [r1, #16]
 8003c22:	699a      	ldr	r2, [r3, #24]
 8003c24:	f442 6200 	orr.w	r2, r2, #2048	; 0x800
 8003c28:	619a      	str	r2, [r3, #24]
 8003c2a:	699a      	ldr	r2, [r3, #24]
 8003c2c:	f422 6280 	bic.w	r2, r2, #1024	; 0x400
 8003c30:	619a      	str	r2, [r3, #24]
 8003c32:	699a      	ldr	r2, [r3, #24]
 8003c34:	ea42 2201 	orr.w	r2, r2, r1, lsl #8
 8003c38:	e7eb      	b.n	8003c12 <HAL_TIM_PWM_ConfigChannel+0x6e>
 8003c3a:	6800      	ldr	r0, [r0, #0]
 8003c3c:	f7ff fd4a 	bl	80036d4 <TIM_OC3_SetConfig>
 8003c40:	682b      	ldr	r3, [r5, #0]
 8003c42:	6909      	ldr	r1, [r1, #16]
 8003c44:	69da      	ldr	r2, [r3, #28]
 8003c46:	f042 0208 	orr.w	r2, r2, #8
 8003c4a:	61da      	str	r2, [r3, #28]
 8003c4c:	69da      	ldr	r2, [r3, #28]
 8003c4e:	f022 0204 	bic.w	r2, r2, #4
 8003c52:	61da      	str	r2, [r3, #28]
 8003c54:	69da      	ldr	r2, [r3, #28]
 8003c56:	430a      	orrs	r2, r1
 8003c58:	61da      	str	r2, [r3, #28]
 8003c5a:	e7db      	b.n	8003c14 <HAL_TIM_PWM_ConfigChannel+0x70>
 8003c5c:	2202      	movs	r2, #2
 8003c5e:	e7b4      	b.n	8003bca <HAL_TIM_PWM_ConfigChannel+0x26>

08003c60 <TIM_ETR_SetConfig>:
 8003c60:	b510      	push	{r4, lr}
 8003c62:	6884      	ldr	r4, [r0, #8]
 8003c64:	4311      	orrs	r1, r2
 8003c66:	f424 447f 	bic.w	r4, r4, #65280	; 0xff00
 8003c6a:	ea41 2303 	orr.w	r3, r1, r3, lsl #8
 8003c6e:	4323      	orrs	r3, r4
 8003c70:	6083      	str	r3, [r0, #8]
 8003c72:	bd10      	pop	{r4, pc}

08003c74 <HAL_TIM_ConfigClockSource>:
 8003c74:	b570      	push	{r4, r5, r6, lr}
 8003c76:	f890 303c 	ldrb.w	r3, [r0, #60]	; 0x3c
 8003c7a:	2b01      	cmp	r3, #1
 8003c7c:	4604      	mov	r4, r0
 8003c7e:	f04f 0302 	mov.w	r3, #2
 8003c82:	f000 8091 	beq.w	8003da8 <HAL_TIM_ConfigClockSource+0x134>
 8003c86:	2201      	movs	r2, #1
 8003c88:	f880 303d 	strb.w	r3, [r0, #61]	; 0x3d
 8003c8c:	f880 203c 	strb.w	r2, [r0, #60]	; 0x3c
 8003c90:	6800      	ldr	r0, [r0, #0]
 8003c92:	6883      	ldr	r3, [r0, #8]
 8003c94:	f423 437f 	bic.w	r3, r3, #65280	; 0xff00
 8003c98:	f023 0377 	bic.w	r3, r3, #119	; 0x77
 8003c9c:	6083      	str	r3, [r0, #8]
 8003c9e:	680b      	ldr	r3, [r1, #0]
 8003ca0:	2b60      	cmp	r3, #96	; 0x60
 8003ca2:	d052      	beq.n	8003d4a <HAL_TIM_ConfigClockSource+0xd6>
 8003ca4:	d833      	bhi.n	8003d0e <HAL_TIM_ConfigClockSource+0x9a>
 8003ca6:	2b40      	cmp	r3, #64	; 0x40
 8003ca8:	d067      	beq.n	8003d7a <HAL_TIM_ConfigClockSource+0x106>
 8003caa:	d816      	bhi.n	8003cda <HAL_TIM_ConfigClockSource+0x66>
 8003cac:	2b20      	cmp	r3, #32
 8003cae:	d00d      	beq.n	8003ccc <HAL_TIM_ConfigClockSource+0x58>
 8003cb0:	d80a      	bhi.n	8003cc8 <HAL_TIM_ConfigClockSource+0x54>
 8003cb2:	f033 0110 	bics.w	r1, r3, #16
 8003cb6:	d009      	beq.n	8003ccc <HAL_TIM_ConfigClockSource+0x58>
 8003cb8:	2301      	movs	r3, #1
 8003cba:	f884 303d 	strb.w	r3, [r4, #61]	; 0x3d
 8003cbe:	2300      	movs	r3, #0
 8003cc0:	f884 303c 	strb.w	r3, [r4, #60]	; 0x3c
 8003cc4:	4610      	mov	r0, r2
 8003cc6:	bd70      	pop	{r4, r5, r6, pc}
 8003cc8:	2b30      	cmp	r3, #48	; 0x30
 8003cca:	d1f5      	bne.n	8003cb8 <HAL_TIM_ConfigClockSource+0x44>
 8003ccc:	6882      	ldr	r2, [r0, #8]
 8003cce:	f022 0270 	bic.w	r2, r2, #112	; 0x70
 8003cd2:	4313      	orrs	r3, r2
 8003cd4:	f043 0307 	orr.w	r3, r3, #7
 8003cd8:	e017      	b.n	8003d0a <HAL_TIM_ConfigClockSource+0x96>
 8003cda:	2b50      	cmp	r3, #80	; 0x50
 8003cdc:	d1ec      	bne.n	8003cb8 <HAL_TIM_ConfigClockSource+0x44>
 8003cde:	684a      	ldr	r2, [r1, #4]
 8003ce0:	68ce      	ldr	r6, [r1, #12]
 8003ce2:	6a01      	ldr	r1, [r0, #32]
 8003ce4:	6a05      	ldr	r5, [r0, #32]
 8003ce6:	f025 0501 	bic.w	r5, r5, #1
 8003cea:	6205      	str	r5, [r0, #32]
 8003cec:	6983      	ldr	r3, [r0, #24]
 8003cee:	f021 010a 	bic.w	r1, r1, #10
 8003cf2:	f023 03f0 	bic.w	r3, r3, #240	; 0xf0
 8003cf6:	ea43 1306 	orr.w	r3, r3, r6, lsl #4
 8003cfa:	430a      	orrs	r2, r1
 8003cfc:	6183      	str	r3, [r0, #24]
 8003cfe:	6202      	str	r2, [r0, #32]
 8003d00:	6883      	ldr	r3, [r0, #8]
 8003d02:	f023 0370 	bic.w	r3, r3, #112	; 0x70
 8003d06:	f043 0357 	orr.w	r3, r3, #87	; 0x57
 8003d0a:	6083      	str	r3, [r0, #8]
 8003d0c:	e011      	b.n	8003d32 <HAL_TIM_ConfigClockSource+0xbe>
 8003d0e:	f5b3 5f80 	cmp.w	r3, #4096	; 0x1000
 8003d12:	d00e      	beq.n	8003d32 <HAL_TIM_ConfigClockSource+0xbe>
 8003d14:	f5b3 5f00 	cmp.w	r3, #8192	; 0x2000
 8003d18:	d00d      	beq.n	8003d36 <HAL_TIM_ConfigClockSource+0xc2>
 8003d1a:	2b70      	cmp	r3, #112	; 0x70
 8003d1c:	d1cc      	bne.n	8003cb8 <HAL_TIM_ConfigClockSource+0x44>
 8003d1e:	68cb      	ldr	r3, [r1, #12]
 8003d20:	e9d1 2101 	ldrd	r2, r1, [r1, #4]
 8003d24:	f7ff ff9c 	bl	8003c60 <TIM_ETR_SetConfig>
 8003d28:	6822      	ldr	r2, [r4, #0]
 8003d2a:	6893      	ldr	r3, [r2, #8]
 8003d2c:	f043 0377 	orr.w	r3, r3, #119	; 0x77
 8003d30:	6093      	str	r3, [r2, #8]
 8003d32:	2200      	movs	r2, #0
 8003d34:	e7c0      	b.n	8003cb8 <HAL_TIM_ConfigClockSource+0x44>
 8003d36:	68cb      	ldr	r3, [r1, #12]
 8003d38:	e9d1 2101 	ldrd	r2, r1, [r1, #4]
 8003d3c:	f7ff ff90 	bl	8003c60 <TIM_ETR_SetConfig>
 8003d40:	6822      	ldr	r2, [r4, #0]
 8003d42:	6893      	ldr	r3, [r2, #8]
 8003d44:	f443 4380 	orr.w	r3, r3, #16384	; 0x4000
 8003d48:	e7f2      	b.n	8003d30 <HAL_TIM_ConfigClockSource+0xbc>
 8003d4a:	684d      	ldr	r5, [r1, #4]
 8003d4c:	68ce      	ldr	r6, [r1, #12]
 8003d4e:	6a01      	ldr	r1, [r0, #32]
 8003d50:	f021 0110 	bic.w	r1, r1, #16
 8003d54:	6201      	str	r1, [r0, #32]
 8003d56:	6982      	ldr	r2, [r0, #24]
 8003d58:	6a03      	ldr	r3, [r0, #32]
 8003d5a:	f422 4270 	bic.w	r2, r2, #61440	; 0xf000
 8003d5e:	f023 03a0 	bic.w	r3, r3, #160	; 0xa0
 8003d62:	ea43 1305 	orr.w	r3, r3, r5, lsl #4
 8003d66:	ea42 3206 	orr.w	r2, r2, r6, lsl #12
 8003d6a:	6182      	str	r2, [r0, #24]
 8003d6c:	6203      	str	r3, [r0, #32]
 8003d6e:	6883      	ldr	r3, [r0, #8]
 8003d70:	f023 0370 	bic.w	r3, r3, #112	; 0x70
 8003d74:	f043 0367 	orr.w	r3, r3, #103	; 0x67
 8003d78:	e7c7      	b.n	8003d0a <HAL_TIM_ConfigClockSource+0x96>
 8003d7a:	684a      	ldr	r2, [r1, #4]
 8003d7c:	68ce      	ldr	r6, [r1, #12]
 8003d7e:	6a01      	ldr	r1, [r0, #32]
 8003d80:	6a05      	ldr	r5, [r0, #32]
 8003d82:	f025 0501 	bic.w	r5, r5, #1
 8003d86:	6205      	str	r5, [r0, #32]
 8003d88:	6983      	ldr	r3, [r0, #24]
 8003d8a:	f021 010a 	bic.w	r1, r1, #10
 8003d8e:	f023 03f0 	bic.w	r3, r3, #240	; 0xf0
 8003d92:	ea43 1306 	orr.w	r3, r3, r6, lsl #4
 8003d96:	430a      	orrs	r2, r1
 8003d98:	6183      	str	r3, [r0, #24]
 8003d9a:	6202      	str	r2, [r0, #32]
 8003d9c:	6883      	ldr	r3, [r0, #8]
 8003d9e:	f023 0370 	bic.w	r3, r3, #112	; 0x70
 8003da2:	f043 0347 	orr.w	r3, r3, #71	; 0x47
 8003da6:	e7b0      	b.n	8003d0a <HAL_TIM_ConfigClockSource+0x96>
 8003da8:	461a      	mov	r2, r3
 8003daa:	e78b      	b.n	8003cc4 <HAL_TIM_ConfigClockSource+0x50>

08003dac <TIM_CCxChannelCmd>:
 8003dac:	6a03      	ldr	r3, [r0, #32]
 8003dae:	f001 011f 	and.w	r1, r1, #31
 8003db2:	b510      	push	{r4, lr}
 8003db4:	2401      	movs	r4, #1
 8003db6:	408c      	lsls	r4, r1
 8003db8:	ea23 0304 	bic.w	r3, r3, r4
 8003dbc:	6203      	str	r3, [r0, #32]
 8003dbe:	6a03      	ldr	r3, [r0, #32]
 8003dc0:	408a      	lsls	r2, r1
 8003dc2:	431a      	orrs	r2, r3
 8003dc4:	6202      	str	r2, [r0, #32]
 8003dc6:	bd10      	pop	{r4, pc}

08003dc8 <HAL_TIM_OC_Start>:
 8003dc8:	b510      	push	{r4, lr}
 8003dca:	4604      	mov	r4, r0
 8003dcc:	b929      	cbnz	r1, 8003dda <HAL_TIM_OC_Start+0x12>
 8003dce:	f890 303e 	ldrb.w	r3, [r0, #62]	; 0x3e
 8003dd2:	2b01      	cmp	r3, #1
 8003dd4:	d01d      	beq.n	8003e12 <HAL_TIM_OC_Start+0x4a>
 8003dd6:	2001      	movs	r0, #1
 8003dd8:	e032      	b.n	8003e40 <HAL_TIM_OC_Start+0x78>
 8003dda:	2904      	cmp	r1, #4
 8003ddc:	d107      	bne.n	8003dee <HAL_TIM_OC_Start+0x26>
 8003dde:	f890 303f 	ldrb.w	r3, [r0, #63]	; 0x3f
 8003de2:	2b01      	cmp	r3, #1
 8003de4:	d1f7      	bne.n	8003dd6 <HAL_TIM_OC_Start+0xe>
 8003de6:	2302      	movs	r3, #2
 8003de8:	f880 303f 	strb.w	r3, [r0, #63]	; 0x3f
 8003dec:	e014      	b.n	8003e18 <HAL_TIM_OC_Start+0x50>
 8003dee:	2908      	cmp	r1, #8
 8003df0:	d107      	bne.n	8003e02 <HAL_TIM_OC_Start+0x3a>
 8003df2:	f890 3040 	ldrb.w	r3, [r0, #64]	; 0x40
 8003df6:	2b01      	cmp	r3, #1
 8003df8:	d1ed      	bne.n	8003dd6 <HAL_TIM_OC_Start+0xe>
 8003dfa:	2302      	movs	r3, #2
 8003dfc:	f880 3040 	strb.w	r3, [r0, #64]	; 0x40
 8003e00:	e00a      	b.n	8003e18 <HAL_TIM_OC_Start+0x50>
 8003e02:	f890 3041 	ldrb.w	r3, [r0, #65]	; 0x41
 8003e06:	2b01      	cmp	r3, #1
 8003e08:	d1e5      	bne.n	8003dd6 <HAL_TIM_OC_Start+0xe>
 8003e0a:	2302      	movs	r3, #2
 8003e0c:	f880 3041 	strb.w	r3, [r0, #65]	; 0x41
 8003e10:	e002      	b.n	8003e18 <HAL_TIM_OC_Start+0x50>
 8003e12:	2302      	movs	r3, #2
 8003e14:	f880 303e 	strb.w	r3, [r0, #62]	; 0x3e
 8003e18:	2201      	movs	r2, #1
 8003e1a:	6820      	ldr	r0, [r4, #0]
 8003e1c:	f7ff ffc6 	bl	8003dac <TIM_CCxChannelCmd>
 8003e20:	6823      	ldr	r3, [r4, #0]
 8003e22:	4a19      	ldr	r2, [pc, #100]	; (8003e88 <HAL_TIM_OC_Start+0xc0>)
 8003e24:	4293      	cmp	r3, r2
 8003e26:	d00c      	beq.n	8003e42 <HAL_TIM_OC_Start+0x7a>
 8003e28:	4918      	ldr	r1, [pc, #96]	; (8003e8c <HAL_TIM_OC_Start+0xc4>)
 8003e2a:	428b      	cmp	r3, r1
 8003e2c:	d009      	beq.n	8003e42 <HAL_TIM_OC_Start+0x7a>
 8003e2e:	f1b3 4f80 	cmp.w	r3, #1073741824	; 0x40000000
 8003e32:	d10d      	bne.n	8003e50 <HAL_TIM_OC_Start+0x88>
 8003e34:	689a      	ldr	r2, [r3, #8]
 8003e36:	f002 0207 	and.w	r2, r2, #7
 8003e3a:	2a06      	cmp	r2, #6
 8003e3c:	d11f      	bne.n	8003e7e <HAL_TIM_OC_Start+0xb6>
 8003e3e:	2000      	movs	r0, #0
 8003e40:	bd10      	pop	{r4, pc}
 8003e42:	6c59      	ldr	r1, [r3, #68]	; 0x44
 8003e44:	4293      	cmp	r3, r2
 8003e46:	f441 4100 	orr.w	r1, r1, #32768	; 0x8000
 8003e4a:	6459      	str	r1, [r3, #68]	; 0x44
 8003e4c:	d0f2      	beq.n	8003e34 <HAL_TIM_OC_Start+0x6c>
 8003e4e:	e7ee      	b.n	8003e2e <HAL_TIM_OC_Start+0x66>
 8003e50:	4a0f      	ldr	r2, [pc, #60]	; (8003e90 <HAL_TIM_OC_Start+0xc8>)
 8003e52:	4293      	cmp	r3, r2
 8003e54:	d0ee      	beq.n	8003e34 <HAL_TIM_OC_Start+0x6c>
 8003e56:	f502 6280 	add.w	r2, r2, #1024	; 0x400
 8003e5a:	4293      	cmp	r3, r2
 8003e5c:	d0ea      	beq.n	8003e34 <HAL_TIM_OC_Start+0x6c>
 8003e5e:	f502 6280 	add.w	r2, r2, #1024	; 0x400
 8003e62:	4293      	cmp	r3, r2
 8003e64:	d0e6      	beq.n	8003e34 <HAL_TIM_OC_Start+0x6c>
 8003e66:	f502 4278 	add.w	r2, r2, #63488	; 0xf800
 8003e6a:	4293      	cmp	r3, r2
 8003e6c:	d0e2      	beq.n	8003e34 <HAL_TIM_OC_Start+0x6c>
 8003e6e:	f502 5270 	add.w	r2, r2, #15360	; 0x3c00
 8003e72:	4293      	cmp	r3, r2
 8003e74:	d0de      	beq.n	8003e34 <HAL_TIM_OC_Start+0x6c>
 8003e76:	f5a2 3294 	sub.w	r2, r2, #75776	; 0x12800
 8003e7a:	4293      	cmp	r3, r2
 8003e7c:	d0da      	beq.n	8003e34 <HAL_TIM_OC_Start+0x6c>
 8003e7e:	681a      	ldr	r2, [r3, #0]
 8003e80:	f042 0201 	orr.w	r2, r2, #1
 8003e84:	601a      	str	r2, [r3, #0]
 8003e86:	e7da      	b.n	8003e3e <HAL_TIM_OC_Start+0x76>
 8003e88:	40010000 	.word	0x40010000
 8003e8c:	40010400 	.word	0x40010400
 8003e90:	40000400 	.word	0x40000400

08003e94 <HAL_TIM_PWM_Start>:
 8003e94:	f7ff bf98 	b.w	8003dc8 <HAL_TIM_OC_Start>

08003e98 <HAL_TIM_OC_Stop>:
 8003e98:	b538      	push	{r3, r4, r5, lr}
 8003e9a:	4604      	mov	r4, r0
 8003e9c:	2200      	movs	r2, #0
 8003e9e:	6800      	ldr	r0, [r0, #0]
 8003ea0:	460d      	mov	r5, r1
 8003ea2:	f7ff ff83 	bl	8003dac <TIM_CCxChannelCmd>
 8003ea6:	6823      	ldr	r3, [r4, #0]
 8003ea8:	4a1a      	ldr	r2, [pc, #104]	; (8003f14 <HAL_TIM_OC_Stop+0x7c>)
 8003eaa:	4293      	cmp	r3, r2
 8003eac:	d003      	beq.n	8003eb6 <HAL_TIM_OC_Stop+0x1e>
 8003eae:	f502 6280 	add.w	r2, r2, #1024	; 0x400
 8003eb2:	4293      	cmp	r3, r2
 8003eb4:	d10d      	bne.n	8003ed2 <HAL_TIM_OC_Stop+0x3a>
 8003eb6:	6a19      	ldr	r1, [r3, #32]
 8003eb8:	f241 1211 	movw	r2, #4369	; 0x1111
 8003ebc:	4211      	tst	r1, r2
 8003ebe:	d108      	bne.n	8003ed2 <HAL_TIM_OC_Stop+0x3a>
 8003ec0:	6a19      	ldr	r1, [r3, #32]
 8003ec2:	f240 4244 	movw	r2, #1092	; 0x444
 8003ec6:	4211      	tst	r1, r2
 8003ec8:	bf02      	ittt	eq
 8003eca:	6c5a      	ldreq	r2, [r3, #68]	; 0x44
 8003ecc:	f422 4200 	biceq.w	r2, r2, #32768	; 0x8000
 8003ed0:	645a      	streq	r2, [r3, #68]	; 0x44
 8003ed2:	6a19      	ldr	r1, [r3, #32]
 8003ed4:	f241 1211 	movw	r2, #4369	; 0x1111
 8003ed8:	4211      	tst	r1, r2
 8003eda:	d108      	bne.n	8003eee <HAL_TIM_OC_Stop+0x56>
 8003edc:	6a19      	ldr	r1, [r3, #32]
 8003ede:	f240 4244 	movw	r2, #1092	; 0x444
 8003ee2:	4211      	tst	r1, r2
 8003ee4:	bf02      	ittt	eq
 8003ee6:	681a      	ldreq	r2, [r3, #0]
 8003ee8:	f022 0201 	biceq.w	r2, r2, #1
 8003eec:	601a      	streq	r2, [r3, #0]
 8003eee:	2301      	movs	r3, #1
 8003ef0:	b91d      	cbnz	r5, 8003efa <HAL_TIM_OC_Stop+0x62>
 8003ef2:	f884 303e 	strb.w	r3, [r4, #62]	; 0x3e
 8003ef6:	2000      	movs	r0, #0
 8003ef8:	bd38      	pop	{r3, r4, r5, pc}
 8003efa:	2d04      	cmp	r5, #4
 8003efc:	d102      	bne.n	8003f04 <HAL_TIM_OC_Stop+0x6c>
 8003efe:	f884 303f 	strb.w	r3, [r4, #63]	; 0x3f
 8003f02:	e7f8      	b.n	8003ef6 <HAL_TIM_OC_Stop+0x5e>
 8003f04:	2d08      	cmp	r5, #8
 8003f06:	bf0c      	ite	eq
 8003f08:	f884 3040 	strbeq.w	r3, [r4, #64]	; 0x40
 8003f0c:	f884 3041 	strbne.w	r3, [r4, #65]	; 0x41
 8003f10:	e7f1      	b.n	8003ef6 <HAL_TIM_OC_Stop+0x5e>
 8003f12:	bf00      	nop
 8003f14:	40010000 	.word	0x40010000

08003f18 <HAL_TIM_PWM_Stop>:
 8003f18:	f7ff bfbe 	b.w	8003e98 <HAL_TIM_OC_Stop>

08003f1c <HAL_TIMEx_MasterConfigSynchronization>:
 8003f1c:	b530      	push	{r4, r5, lr}
 8003f1e:	f890 303c 	ldrb.w	r3, [r0, #60]	; 0x3c
 8003f22:	2b01      	cmp	r3, #1
 8003f24:	f04f 0302 	mov.w	r3, #2
 8003f28:	d032      	beq.n	8003f90 <HAL_TIMEx_MasterConfigSynchronization+0x74>
 8003f2a:	f880 303d 	strb.w	r3, [r0, #61]	; 0x3d
 8003f2e:	6803      	ldr	r3, [r0, #0]
 8003f30:	680d      	ldr	r5, [r1, #0]
 8003f32:	685c      	ldr	r4, [r3, #4]
 8003f34:	689a      	ldr	r2, [r3, #8]
 8003f36:	f024 0470 	bic.w	r4, r4, #112	; 0x70
 8003f3a:	432c      	orrs	r4, r5
 8003f3c:	605c      	str	r4, [r3, #4]
 8003f3e:	4c15      	ldr	r4, [pc, #84]	; (8003f94 <HAL_TIMEx_MasterConfigSynchronization+0x78>)
 8003f40:	42a3      	cmp	r3, r4
 8003f42:	d01a      	beq.n	8003f7a <HAL_TIMEx_MasterConfigSynchronization+0x5e>
 8003f44:	f1b3 4f80 	cmp.w	r3, #1073741824	; 0x40000000
 8003f48:	d017      	beq.n	8003f7a <HAL_TIMEx_MasterConfigSynchronization+0x5e>
 8003f4a:	f5a4 447c 	sub.w	r4, r4, #64512	; 0xfc00
 8003f4e:	42a3      	cmp	r3, r4
 8003f50:	d013      	beq.n	8003f7a <HAL_TIMEx_MasterConfigSynchronization+0x5e>
 8003f52:	f504 6480 	add.w	r4, r4, #1024	; 0x400
 8003f56:	42a3      	cmp	r3, r4
 8003f58:	d00f      	beq.n	8003f7a <HAL_TIMEx_MasterConfigSynchronization+0x5e>
 8003f5a:	f504 6480 	add.w	r4, r4, #1024	; 0x400
 8003f5e:	42a3      	cmp	r3, r4
 8003f60:	d00b      	beq.n	8003f7a <HAL_TIMEx_MasterConfigSynchronization+0x5e>
 8003f62:	f504 4478 	add.w	r4, r4, #63488	; 0xf800
 8003f66:	42a3      	cmp	r3, r4
 8003f68:	d007      	beq.n	8003f7a <HAL_TIMEx_MasterConfigSynchronization+0x5e>
 8003f6a:	f504 5470 	add.w	r4, r4, #15360	; 0x3c00
 8003f6e:	42a3      	cmp	r3, r4
 8003f70:	d003      	beq.n	8003f7a <HAL_TIMEx_MasterConfigSynchronization+0x5e>
 8003f72:	f5a4 3494 	sub.w	r4, r4, #75776	; 0x12800
 8003f76:	42a3      	cmp	r3, r4
 8003f78:	d104      	bne.n	8003f84 <HAL_TIMEx_MasterConfigSynchronization+0x68>
 8003f7a:	6849      	ldr	r1, [r1, #4]
 8003f7c:	f022 0280 	bic.w	r2, r2, #128	; 0x80
 8003f80:	430a      	orrs	r2, r1
 8003f82:	609a      	str	r2, [r3, #8]
 8003f84:	2301      	movs	r3, #1
 8003f86:	f880 303d 	strb.w	r3, [r0, #61]	; 0x3d
 8003f8a:	2300      	movs	r3, #0
 8003f8c:	f880 303c 	strb.w	r3, [r0, #60]	; 0x3c
 8003f90:	4618      	mov	r0, r3
 8003f92:	bd30      	pop	{r4, r5, pc}
 8003f94:	40010000 	.word	0x40010000

08003f98 <HAL_TIMEx_CommutCallback>:
 8003f98:	4770      	bx	lr

08003f9a <HAL_TIMEx_BreakCallback>:
 8003f9a:	4770      	bx	lr

08003f9c <UART_SetConfig>:
 8003f9c:	6802      	ldr	r2, [r0, #0]
 8003f9e:	68c1      	ldr	r1, [r0, #12]
 8003fa0:	b538      	push	{r3, r4, r5, lr}
 8003fa2:	6913      	ldr	r3, [r2, #16]
 8003fa4:	f423 5340 	bic.w	r3, r3, #12288	; 0x3000
 8003fa8:	430b      	orrs	r3, r1
 8003faa:	6113      	str	r3, [r2, #16]
 8003fac:	4605      	mov	r5, r0
 8003fae:	6883      	ldr	r3, [r0, #8]
 8003fb0:	6900      	ldr	r0, [r0, #16]
 8003fb2:	68d1      	ldr	r1, [r2, #12]
 8003fb4:	4303      	orrs	r3, r0
 8003fb6:	6968      	ldr	r0, [r5, #20]
 8003fb8:	4303      	orrs	r3, r0
 8003fba:	69e8      	ldr	r0, [r5, #28]
 8003fbc:	f421 4116 	bic.w	r1, r1, #38400	; 0x9600
 8003fc0:	f021 010c 	bic.w	r1, r1, #12
 8003fc4:	4303      	orrs	r3, r0
 8003fc6:	430b      	orrs	r3, r1
 8003fc8:	60d3      	str	r3, [r2, #12]
 8003fca:	6953      	ldr	r3, [r2, #20]
 8003fcc:	69a9      	ldr	r1, [r5, #24]
 8003fce:	f423 7340 	bic.w	r3, r3, #768	; 0x300
 8003fd2:	430b      	orrs	r3, r1
 8003fd4:	6153      	str	r3, [r2, #20]
 8003fd6:	4b1f      	ldr	r3, [pc, #124]	; (8004054 <UART_SetConfig+0xb8>)
 8003fd8:	429a      	cmp	r2, r3
 8003fda:	d003      	beq.n	8003fe4 <UART_SetConfig+0x48>
 8003fdc:	f503 6380 	add.w	r3, r3, #1024	; 0x400
 8003fe0:	429a      	cmp	r2, r3
 8003fe2:	d124      	bne.n	800402e <UART_SetConfig+0x92>
 8003fe4:	f7ff f926 	bl	8003234 <HAL_RCC_GetPCLK2Freq>
 8003fe8:	69ea      	ldr	r2, [r5, #28]
 8003fea:	2319      	movs	r3, #25
 8003fec:	f5b2 4f00 	cmp.w	r2, #32768	; 0x8000
 8003ff0:	fba0 0103 	umull	r0, r1, r0, r3
 8003ff4:	e9d5 4300 	ldrd	r4, r3, [r5]
 8003ff8:	d11c      	bne.n	8004034 <UART_SetConfig+0x98>
 8003ffa:	461a      	mov	r2, r3
 8003ffc:	1892      	adds	r2, r2, r2
 8003ffe:	f04f 0300 	mov.w	r3, #0
 8004002:	415b      	adcs	r3, r3
 8004004:	f7fc fd82 	bl	8000b0c <__aeabi_uldivmod>
 8004008:	2164      	movs	r1, #100	; 0x64
 800400a:	fbb0 f5f1 	udiv	r5, r0, r1
 800400e:	fb01 0315 	mls	r3, r1, r5, r0
 8004012:	00db      	lsls	r3, r3, #3
 8004014:	3332      	adds	r3, #50	; 0x32
 8004016:	fbb3 f3f1 	udiv	r3, r3, r1
 800401a:	f003 0207 	and.w	r2, r3, #7
 800401e:	005b      	lsls	r3, r3, #1
 8004020:	eb02 1205 	add.w	r2, r2, r5, lsl #4
 8004024:	f403 73f8 	and.w	r3, r3, #496	; 0x1f0
 8004028:	4413      	add	r3, r2
 800402a:	60a3      	str	r3, [r4, #8]
 800402c:	bd38      	pop	{r3, r4, r5, pc}
 800402e:	f7ff f8f1 	bl	8003214 <HAL_RCC_GetPCLK1Freq>
 8004032:	e7d9      	b.n	8003fe8 <UART_SetConfig+0x4c>
 8004034:	009a      	lsls	r2, r3, #2
 8004036:	0f9b      	lsrs	r3, r3, #30
 8004038:	f7fc fd68 	bl	8000b0c <__aeabi_uldivmod>
 800403c:	2264      	movs	r2, #100	; 0x64
 800403e:	fbb0 f1f2 	udiv	r1, r0, r2
 8004042:	fb02 0311 	mls	r3, r2, r1, r0
 8004046:	011b      	lsls	r3, r3, #4
 8004048:	3332      	adds	r3, #50	; 0x32
 800404a:	fbb3 f3f2 	udiv	r3, r3, r2
 800404e:	eb03 1301 	add.w	r3, r3, r1, lsl #4
 8004052:	e7ea      	b.n	800402a <UART_SetConfig+0x8e>
 8004054:	40011000 	.word	0x40011000

08004058 <UART_WaitOnFlagUntilTimeout.constprop.0>:
 8004058:	b5f8      	push	{r3, r4, r5, r6, r7, lr}
 800405a:	4604      	mov	r4, r0
 800405c:	460e      	mov	r6, r1
 800405e:	4617      	mov	r7, r2
 8004060:	461d      	mov	r5, r3
 8004062:	6822      	ldr	r2, [r4, #0]
 8004064:	6813      	ldr	r3, [r2, #0]
 8004066:	ea36 0303 	bics.w	r3, r6, r3
 800406a:	d101      	bne.n	8004070 <UART_WaitOnFlagUntilTimeout.constprop.0+0x18>
 800406c:	2000      	movs	r0, #0
 800406e:	e028      	b.n	80040c2 <UART_WaitOnFlagUntilTimeout.constprop.0+0x6a>
 8004070:	1c6b      	adds	r3, r5, #1
 8004072:	d0f7      	beq.n	8004064 <UART_WaitOnFlagUntilTimeout.constprop.0+0xc>
 8004074:	b125      	cbz	r5, 8004080 <UART_WaitOnFlagUntilTimeout.constprop.0+0x28>
 8004076:	f7fd ff5b 	bl	8001f30 <HAL_GetTick>
 800407a:	1bc0      	subs	r0, r0, r7
 800407c:	4285      	cmp	r5, r0
 800407e:	d2f0      	bcs.n	8004062 <UART_WaitOnFlagUntilTimeout.constprop.0+0xa>
 8004080:	6822      	ldr	r2, [r4, #0]
 8004082:	f102 030c 	add.w	r3, r2, #12
 8004086:	e853 3f00 	ldrex	r3, [r3]
 800408a:	f423 73d0 	bic.w	r3, r3, #416	; 0x1a0
 800408e:	320c      	adds	r2, #12
 8004090:	e842 3000 	strex	r0, r3, [r2]
 8004094:	6821      	ldr	r1, [r4, #0]
 8004096:	2800      	cmp	r0, #0
 8004098:	d1f2      	bne.n	8004080 <UART_WaitOnFlagUntilTimeout.constprop.0+0x28>
 800409a:	f101 0314 	add.w	r3, r1, #20
 800409e:	e853 3f00 	ldrex	r3, [r3]
 80040a2:	f023 0301 	bic.w	r3, r3, #1
 80040a6:	f101 0014 	add.w	r0, r1, #20
 80040aa:	e840 3200 	strex	r2, r3, [r0]
 80040ae:	2a00      	cmp	r2, #0
 80040b0:	d1f3      	bne.n	800409a <UART_WaitOnFlagUntilTimeout.constprop.0+0x42>
 80040b2:	2320      	movs	r3, #32
 80040b4:	f884 303d 	strb.w	r3, [r4, #61]	; 0x3d
 80040b8:	f884 203c 	strb.w	r2, [r4, #60]	; 0x3c
 80040bc:	f884 303e 	strb.w	r3, [r4, #62]	; 0x3e
 80040c0:	2003      	movs	r0, #3
 80040c2:	bdf8      	pop	{r3, r4, r5, r6, r7, pc}

080040c4 <HAL_UART_Init>:
 80040c4:	b510      	push	{r4, lr}
 80040c6:	4604      	mov	r4, r0
 80040c8:	b340      	cbz	r0, 800411c <HAL_UART_Init+0x58>
 80040ca:	f890 303d 	ldrb.w	r3, [r0, #61]	; 0x3d
 80040ce:	f003 02ff 	and.w	r2, r3, #255	; 0xff
 80040d2:	b91b      	cbnz	r3, 80040dc <HAL_UART_Init+0x18>
 80040d4:	f880 203c 	strb.w	r2, [r0, #60]	; 0x3c
 80040d8:	f7fd fd32 	bl	8001b40 <HAL_UART_MspInit>
 80040dc:	6822      	ldr	r2, [r4, #0]
 80040de:	2324      	movs	r3, #36	; 0x24
 80040e0:	f884 303d 	strb.w	r3, [r4, #61]	; 0x3d
 80040e4:	68d3      	ldr	r3, [r2, #12]
 80040e6:	f423 5300 	bic.w	r3, r3, #8192	; 0x2000
 80040ea:	60d3      	str	r3, [r2, #12]
 80040ec:	4620      	mov	r0, r4
 80040ee:	f7ff ff55 	bl	8003f9c <UART_SetConfig>
 80040f2:	6823      	ldr	r3, [r4, #0]
 80040f4:	691a      	ldr	r2, [r3, #16]
 80040f6:	f422 4290 	bic.w	r2, r2, #18432	; 0x4800
 80040fa:	611a      	str	r2, [r3, #16]
 80040fc:	695a      	ldr	r2, [r3, #20]
 80040fe:	f022 022a 	bic.w	r2, r2, #42	; 0x2a
 8004102:	615a      	str	r2, [r3, #20]
 8004104:	68da      	ldr	r2, [r3, #12]
 8004106:	f442 5200 	orr.w	r2, r2, #8192	; 0x2000
 800410a:	60da      	str	r2, [r3, #12]
 800410c:	2000      	movs	r0, #0
 800410e:	2320      	movs	r3, #32
 8004110:	6420      	str	r0, [r4, #64]	; 0x40
 8004112:	f884 303d 	strb.w	r3, [r4, #61]	; 0x3d
 8004116:	f884 303e 	strb.w	r3, [r4, #62]	; 0x3e
 800411a:	bd10      	pop	{r4, pc}
 800411c:	2001      	movs	r0, #1
 800411e:	e7fc      	b.n	800411a <HAL_UART_Init+0x56>

08004120 <HAL_UART_Transmit>:
 8004120:	b5f7      	push	{r0, r1, r2, r4, r5, r6, r7, lr}
 8004122:	4617      	mov	r7, r2
 8004124:	f890 203d 	ldrb.w	r2, [r0, #61]	; 0x3d
 8004128:	9300      	str	r3, [sp, #0]
 800412a:	2a20      	cmp	r2, #32
 800412c:	4604      	mov	r4, r0
 800412e:	460e      	mov	r6, r1
 8004130:	d149      	bne.n	80041c6 <HAL_UART_Transmit+0xa6>
 8004132:	2900      	cmp	r1, #0
 8004134:	d045      	beq.n	80041c2 <HAL_UART_Transmit+0xa2>
 8004136:	2f00      	cmp	r7, #0
 8004138:	d043      	beq.n	80041c2 <HAL_UART_Transmit+0xa2>
 800413a:	f890 203c 	ldrb.w	r2, [r0, #60]	; 0x3c
 800413e:	2a01      	cmp	r2, #1
 8004140:	d041      	beq.n	80041c6 <HAL_UART_Transmit+0xa6>
 8004142:	2201      	movs	r2, #1
 8004144:	f880 203c 	strb.w	r2, [r0, #60]	; 0x3c
 8004148:	2500      	movs	r5, #0
 800414a:	2221      	movs	r2, #33	; 0x21
 800414c:	6405      	str	r5, [r0, #64]	; 0x40
 800414e:	f880 203d 	strb.w	r2, [r0, #61]	; 0x3d
 8004152:	f7fd feed 	bl	8001f30 <HAL_GetTick>
 8004156:	68a1      	ldr	r1, [r4, #8]
 8004158:	9b00      	ldr	r3, [sp, #0]
 800415a:	84a7      	strh	r7, [r4, #36]	; 0x24
 800415c:	f5b1 5f80 	cmp.w	r1, #4096	; 0x1000
 8004160:	4602      	mov	r2, r0
 8004162:	84e7      	strh	r7, [r4, #38]	; 0x26
 8004164:	d103      	bne.n	800416e <HAL_UART_Transmit+0x4e>
 8004166:	6921      	ldr	r1, [r4, #16]
 8004168:	b909      	cbnz	r1, 800416e <HAL_UART_Transmit+0x4e>
 800416a:	4635      	mov	r5, r6
 800416c:	460e      	mov	r6, r1
 800416e:	2100      	movs	r1, #0
 8004170:	f884 103c 	strb.w	r1, [r4, #60]	; 0x3c
 8004174:	8ce1      	ldrh	r1, [r4, #38]	; 0x26
 8004176:	b289      	uxth	r1, r1
 8004178:	b941      	cbnz	r1, 800418c <HAL_UART_Transmit+0x6c>
 800417a:	2140      	movs	r1, #64	; 0x40
 800417c:	4620      	mov	r0, r4
 800417e:	f7ff ff6b 	bl	8004058 <UART_WaitOnFlagUntilTimeout.constprop.0>
 8004182:	b960      	cbnz	r0, 800419e <HAL_UART_Transmit+0x7e>
 8004184:	2320      	movs	r3, #32
 8004186:	f884 303d 	strb.w	r3, [r4, #61]	; 0x3d
 800418a:	e009      	b.n	80041a0 <HAL_UART_Transmit+0x80>
 800418c:	2180      	movs	r1, #128	; 0x80
 800418e:	4620      	mov	r0, r4
 8004190:	e9cd 2300 	strd	r2, r3, [sp]
 8004194:	f7ff ff60 	bl	8004058 <UART_WaitOnFlagUntilTimeout.constprop.0>
 8004198:	e9dd 2300 	ldrd	r2, r3, [sp]
 800419c:	b110      	cbz	r0, 80041a4 <HAL_UART_Transmit+0x84>
 800419e:	2003      	movs	r0, #3
 80041a0:	b003      	add	sp, #12
 80041a2:	bdf0      	pop	{r4, r5, r6, r7, pc}
 80041a4:	6820      	ldr	r0, [r4, #0]
 80041a6:	b94e      	cbnz	r6, 80041bc <HAL_UART_Transmit+0x9c>
 80041a8:	f835 1b02 	ldrh.w	r1, [r5], #2
 80041ac:	f3c1 0108 	ubfx	r1, r1, #0, #9
 80041b0:	6041      	str	r1, [r0, #4]
 80041b2:	8ce1      	ldrh	r1, [r4, #38]	; 0x26
 80041b4:	3901      	subs	r1, #1
 80041b6:	b289      	uxth	r1, r1
 80041b8:	84e1      	strh	r1, [r4, #38]	; 0x26
 80041ba:	e7db      	b.n	8004174 <HAL_UART_Transmit+0x54>
 80041bc:	f816 1b01 	ldrb.w	r1, [r6], #1
 80041c0:	e7f6      	b.n	80041b0 <HAL_UART_Transmit+0x90>
 80041c2:	2001      	movs	r0, #1
 80041c4:	e7ec      	b.n	80041a0 <HAL_UART_Transmit+0x80>
 80041c6:	2002      	movs	r0, #2
 80041c8:	e7ea      	b.n	80041a0 <HAL_UART_Transmit+0x80>
	...

080041cc <__errno>:
 80041cc:	4b01      	ldr	r3, [pc, #4]	; (80041d4 <__errno+0x8>)
 80041ce:	6818      	ldr	r0, [r3, #0]
 80041d0:	4770      	bx	lr
 80041d2:	bf00      	nop
 80041d4:	2000005c 	.word	0x2000005c

080041d8 <__libc_init_array>:
 80041d8:	b570      	push	{r4, r5, r6, lr}
 80041da:	4d0d      	ldr	r5, [pc, #52]	; (8004210 <__libc_init_array+0x38>)
 80041dc:	4c0d      	ldr	r4, [pc, #52]	; (8004214 <__libc_init_array+0x3c>)
 80041de:	1b64      	subs	r4, r4, r5
 80041e0:	10a4      	asrs	r4, r4, #2
 80041e2:	2600      	movs	r6, #0
 80041e4:	42a6      	cmp	r6, r4
 80041e6:	d109      	bne.n	80041fc <__libc_init_array+0x24>
 80041e8:	4d0b      	ldr	r5, [pc, #44]	; (8004218 <__libc_init_array+0x40>)
 80041ea:	4c0c      	ldr	r4, [pc, #48]	; (800421c <__libc_init_array+0x44>)
 80041ec:	f000 fc4e 	bl	8004a8c <_init>
 80041f0:	1b64      	subs	r4, r4, r5
 80041f2:	10a4      	asrs	r4, r4, #2
 80041f4:	2600      	movs	r6, #0
 80041f6:	42a6      	cmp	r6, r4
 80041f8:	d105      	bne.n	8004206 <__libc_init_array+0x2e>
 80041fa:	bd70      	pop	{r4, r5, r6, pc}
 80041fc:	f855 3b04 	ldr.w	r3, [r5], #4
 8004200:	4798      	blx	r3
 8004202:	3601      	adds	r6, #1
 8004204:	e7ee      	b.n	80041e4 <__libc_init_array+0xc>
 8004206:	f855 3b04 	ldr.w	r3, [r5], #4
 800420a:	4798      	blx	r3
 800420c:	3601      	adds	r6, #1
 800420e:	e7f2      	b.n	80041f6 <__libc_init_array+0x1e>
 8004210:	08004bb8 	.word	0x08004bb8
 8004214:	08004bb8 	.word	0x08004bb8
 8004218:	08004bb8 	.word	0x08004bb8
 800421c:	08004bbc 	.word	0x08004bbc

08004220 <memset>:
 8004220:	4402      	add	r2, r0
 8004222:	4603      	mov	r3, r0
 8004224:	4293      	cmp	r3, r2
 8004226:	d100      	bne.n	800422a <memset+0xa>
 8004228:	4770      	bx	lr
 800422a:	f803 1b01 	strb.w	r1, [r3], #1
 800422e:	e7f9      	b.n	8004224 <memset+0x4>

08004230 <siprintf>:
 8004230:	b40e      	push	{r1, r2, r3}
 8004232:	b500      	push	{lr}
 8004234:	b09c      	sub	sp, #112	; 0x70
 8004236:	ab1d      	add	r3, sp, #116	; 0x74
 8004238:	9002      	str	r0, [sp, #8]
 800423a:	9006      	str	r0, [sp, #24]
 800423c:	f06f 4100 	mvn.w	r1, #2147483648	; 0x80000000
 8004240:	4809      	ldr	r0, [pc, #36]	; (8004268 <siprintf+0x38>)
 8004242:	9107      	str	r1, [sp, #28]
 8004244:	9104      	str	r1, [sp, #16]
 8004246:	4909      	ldr	r1, [pc, #36]	; (800426c <siprintf+0x3c>)
 8004248:	f853 2b04 	ldr.w	r2, [r3], #4
 800424c:	9105      	str	r1, [sp, #20]
 800424e:	6800      	ldr	r0, [r0, #0]
 8004250:	9301      	str	r3, [sp, #4]
 8004252:	a902      	add	r1, sp, #8
 8004254:	f000 f868 	bl	8004328 <_svfiprintf_r>
 8004258:	9b02      	ldr	r3, [sp, #8]
 800425a:	2200      	movs	r2, #0
 800425c:	701a      	strb	r2, [r3, #0]
 800425e:	b01c      	add	sp, #112	; 0x70
 8004260:	f85d eb04 	ldr.w	lr, [sp], #4
 8004264:	b003      	add	sp, #12
 8004266:	4770      	bx	lr
 8004268:	2000005c 	.word	0x2000005c
 800426c:	ffff0208 	.word	0xffff0208

08004270 <__ssputs_r>:
 8004270:	e92d 47f0 	stmdb	sp!, {r4, r5, r6, r7, r8, r9, sl, lr}
 8004274:	688e      	ldr	r6, [r1, #8]
 8004276:	429e      	cmp	r6, r3
 8004278:	4682      	mov	sl, r0
 800427a:	460c      	mov	r4, r1
 800427c:	4690      	mov	r8, r2
 800427e:	461f      	mov	r7, r3
 8004280:	d838      	bhi.n	80042f4 <__ssputs_r+0x84>
 8004282:	898a      	ldrh	r2, [r1, #12]
 8004284:	f412 6f90 	tst.w	r2, #1152	; 0x480
 8004288:	d032      	beq.n	80042f0 <__ssputs_r+0x80>
 800428a:	6825      	ldr	r5, [r4, #0]
 800428c:	6909      	ldr	r1, [r1, #16]
 800428e:	eba5 0901 	sub.w	r9, r5, r1
 8004292:	6965      	ldr	r5, [r4, #20]
 8004294:	eb05 0545 	add.w	r5, r5, r5, lsl #1
 8004298:	eb05 75d5 	add.w	r5, r5, r5, lsr #31
 800429c:	3301      	adds	r3, #1
 800429e:	444b      	add	r3, r9
 80042a0:	106d      	asrs	r5, r5, #1
 80042a2:	429d      	cmp	r5, r3
 80042a4:	bf38      	it	cc
 80042a6:	461d      	movcc	r5, r3
 80042a8:	0553      	lsls	r3, r2, #21
 80042aa:	d531      	bpl.n	8004310 <__ssputs_r+0xa0>
 80042ac:	4629      	mov	r1, r5
 80042ae:	f000 fb47 	bl	8004940 <_malloc_r>
 80042b2:	4606      	mov	r6, r0
 80042b4:	b950      	cbnz	r0, 80042cc <__ssputs_r+0x5c>
 80042b6:	230c      	movs	r3, #12
 80042b8:	f8ca 3000 	str.w	r3, [sl]
 80042bc:	89a3      	ldrh	r3, [r4, #12]
 80042be:	f043 0340 	orr.w	r3, r3, #64	; 0x40
 80042c2:	81a3      	strh	r3, [r4, #12]
 80042c4:	f04f 30ff 	mov.w	r0, #4294967295
 80042c8:	e8bd 87f0 	ldmia.w	sp!, {r4, r5, r6, r7, r8, r9, sl, pc}
 80042cc:	6921      	ldr	r1, [r4, #16]
 80042ce:	464a      	mov	r2, r9
 80042d0:	f000 fabe 	bl	8004850 <memcpy>
 80042d4:	89a3      	ldrh	r3, [r4, #12]
 80042d6:	f423 6390 	bic.w	r3, r3, #1152	; 0x480
 80042da:	f043 0380 	orr.w	r3, r3, #128	; 0x80
 80042de:	81a3      	strh	r3, [r4, #12]
 80042e0:	6126      	str	r6, [r4, #16]
 80042e2:	6165      	str	r5, [r4, #20]
 80042e4:	444e      	add	r6, r9
 80042e6:	eba5 0509 	sub.w	r5, r5, r9
 80042ea:	6026      	str	r6, [r4, #0]
 80042ec:	60a5      	str	r5, [r4, #8]
 80042ee:	463e      	mov	r6, r7
 80042f0:	42be      	cmp	r6, r7
 80042f2:	d900      	bls.n	80042f6 <__ssputs_r+0x86>
 80042f4:	463e      	mov	r6, r7
 80042f6:	4632      	mov	r2, r6
 80042f8:	6820      	ldr	r0, [r4, #0]
 80042fa:	4641      	mov	r1, r8
 80042fc:	f000 fab6 	bl	800486c <memmove>
 8004300:	68a3      	ldr	r3, [r4, #8]
 8004302:	6822      	ldr	r2, [r4, #0]
 8004304:	1b9b      	subs	r3, r3, r6
 8004306:	4432      	add	r2, r6
 8004308:	60a3      	str	r3, [r4, #8]
 800430a:	6022      	str	r2, [r4, #0]
 800430c:	2000      	movs	r0, #0
 800430e:	e7db      	b.n	80042c8 <__ssputs_r+0x58>
 8004310:	462a      	mov	r2, r5
 8004312:	f000 fb6f 	bl	80049f4 <_realloc_r>
 8004316:	4606      	mov	r6, r0
 8004318:	2800      	cmp	r0, #0
 800431a:	d1e1      	bne.n	80042e0 <__ssputs_r+0x70>
 800431c:	6921      	ldr	r1, [r4, #16]
 800431e:	4650      	mov	r0, sl
 8004320:	f000 fabe 	bl	80048a0 <_free_r>
 8004324:	e7c7      	b.n	80042b6 <__ssputs_r+0x46>
	...

08004328 <_svfiprintf_r>:
 8004328:	e92d 4ff0 	stmdb	sp!, {r4, r5, r6, r7, r8, r9, sl, fp, lr}
 800432c:	4698      	mov	r8, r3
 800432e:	898b      	ldrh	r3, [r1, #12]
 8004330:	061b      	lsls	r3, r3, #24
 8004332:	b09d      	sub	sp, #116	; 0x74
 8004334:	4607      	mov	r7, r0
 8004336:	460d      	mov	r5, r1
 8004338:	4614      	mov	r4, r2
 800433a:	d50e      	bpl.n	800435a <_svfiprintf_r+0x32>
 800433c:	690b      	ldr	r3, [r1, #16]
 800433e:	b963      	cbnz	r3, 800435a <_svfiprintf_r+0x32>
 8004340:	2140      	movs	r1, #64	; 0x40
 8004342:	f000 fafd 	bl	8004940 <_malloc_r>
 8004346:	6028      	str	r0, [r5, #0]
 8004348:	6128      	str	r0, [r5, #16]
 800434a:	b920      	cbnz	r0, 8004356 <_svfiprintf_r+0x2e>
 800434c:	230c      	movs	r3, #12
 800434e:	603b      	str	r3, [r7, #0]
 8004350:	f04f 30ff 	mov.w	r0, #4294967295
 8004354:	e0d1      	b.n	80044fa <_svfiprintf_r+0x1d2>
 8004356:	2340      	movs	r3, #64	; 0x40
 8004358:	616b      	str	r3, [r5, #20]
 800435a:	2300      	movs	r3, #0
 800435c:	9309      	str	r3, [sp, #36]	; 0x24
 800435e:	2320      	movs	r3, #32
 8004360:	f88d 3029 	strb.w	r3, [sp, #41]	; 0x29
 8004364:	f8cd 800c 	str.w	r8, [sp, #12]
 8004368:	2330      	movs	r3, #48	; 0x30
 800436a:	f8df 81a8 	ldr.w	r8, [pc, #424]	; 8004514 <_svfiprintf_r+0x1ec>
 800436e:	f88d 302a 	strb.w	r3, [sp, #42]	; 0x2a
 8004372:	f04f 0901 	mov.w	r9, #1
 8004376:	4623      	mov	r3, r4
 8004378:	469a      	mov	sl, r3
 800437a:	f813 2b01 	ldrb.w	r2, [r3], #1
 800437e:	b10a      	cbz	r2, 8004384 <_svfiprintf_r+0x5c>
 8004380:	2a25      	cmp	r2, #37	; 0x25
 8004382:	d1f9      	bne.n	8004378 <_svfiprintf_r+0x50>
 8004384:	ebba 0b04 	subs.w	fp, sl, r4
 8004388:	d00b      	beq.n	80043a2 <_svfiprintf_r+0x7a>
 800438a:	465b      	mov	r3, fp
 800438c:	4622      	mov	r2, r4
 800438e:	4629      	mov	r1, r5
 8004390:	4638      	mov	r0, r7
 8004392:	f7ff ff6d 	bl	8004270 <__ssputs_r>
 8004396:	3001      	adds	r0, #1
 8004398:	f000 80aa 	beq.w	80044f0 <_svfiprintf_r+0x1c8>
 800439c:	9a09      	ldr	r2, [sp, #36]	; 0x24
 800439e:	445a      	add	r2, fp
 80043a0:	9209      	str	r2, [sp, #36]	; 0x24
 80043a2:	f89a 3000 	ldrb.w	r3, [sl]
 80043a6:	2b00      	cmp	r3, #0
 80043a8:	f000 80a2 	beq.w	80044f0 <_svfiprintf_r+0x1c8>
 80043ac:	2300      	movs	r3, #0
 80043ae:	f04f 32ff 	mov.w	r2, #4294967295
 80043b2:	e9cd 2305 	strd	r2, r3, [sp, #20]
 80043b6:	f10a 0a01 	add.w	sl, sl, #1
 80043ba:	9304      	str	r3, [sp, #16]
 80043bc:	9307      	str	r3, [sp, #28]
 80043be:	f88d 3053 	strb.w	r3, [sp, #83]	; 0x53
 80043c2:	931a      	str	r3, [sp, #104]	; 0x68
 80043c4:	4654      	mov	r4, sl
 80043c6:	2205      	movs	r2, #5
 80043c8:	f814 1b01 	ldrb.w	r1, [r4], #1
 80043cc:	4851      	ldr	r0, [pc, #324]	; (8004514 <_svfiprintf_r+0x1ec>)
 80043ce:	f7fb ff2f 	bl	8000230 <memchr>
 80043d2:	9a04      	ldr	r2, [sp, #16]
 80043d4:	b9d8      	cbnz	r0, 800440e <_svfiprintf_r+0xe6>
 80043d6:	06d0      	lsls	r0, r2, #27
 80043d8:	bf44      	itt	mi
 80043da:	2320      	movmi	r3, #32
 80043dc:	f88d 3053 	strbmi.w	r3, [sp, #83]	; 0x53
 80043e0:	0711      	lsls	r1, r2, #28
 80043e2:	bf44      	itt	mi
 80043e4:	232b      	movmi	r3, #43	; 0x2b
 80043e6:	f88d 3053 	strbmi.w	r3, [sp, #83]	; 0x53
 80043ea:	f89a 3000 	ldrb.w	r3, [sl]
 80043ee:	2b2a      	cmp	r3, #42	; 0x2a
 80043f0:	d015      	beq.n	800441e <_svfiprintf_r+0xf6>
 80043f2:	9a07      	ldr	r2, [sp, #28]
 80043f4:	4654      	mov	r4, sl
 80043f6:	2000      	movs	r0, #0
 80043f8:	f04f 0c0a 	mov.w	ip, #10
 80043fc:	4621      	mov	r1, r4
 80043fe:	f811 3b01 	ldrb.w	r3, [r1], #1
 8004402:	3b30      	subs	r3, #48	; 0x30
 8004404:	2b09      	cmp	r3, #9
 8004406:	d94e      	bls.n	80044a6 <_svfiprintf_r+0x17e>
 8004408:	b1b0      	cbz	r0, 8004438 <_svfiprintf_r+0x110>
 800440a:	9207      	str	r2, [sp, #28]
 800440c:	e014      	b.n	8004438 <_svfiprintf_r+0x110>
 800440e:	eba0 0308 	sub.w	r3, r0, r8
 8004412:	fa09 f303 	lsl.w	r3, r9, r3
 8004416:	4313      	orrs	r3, r2
 8004418:	9304      	str	r3, [sp, #16]
 800441a:	46a2      	mov	sl, r4
 800441c:	e7d2      	b.n	80043c4 <_svfiprintf_r+0x9c>
 800441e:	9b03      	ldr	r3, [sp, #12]
 8004420:	1d19      	adds	r1, r3, #4
 8004422:	681b      	ldr	r3, [r3, #0]
 8004424:	9103      	str	r1, [sp, #12]
 8004426:	2b00      	cmp	r3, #0
 8004428:	bfbb      	ittet	lt
 800442a:	425b      	neglt	r3, r3
 800442c:	f042 0202 	orrlt.w	r2, r2, #2
 8004430:	9307      	strge	r3, [sp, #28]
 8004432:	9307      	strlt	r3, [sp, #28]
 8004434:	bfb8      	it	lt
 8004436:	9204      	strlt	r2, [sp, #16]
 8004438:	7823      	ldrb	r3, [r4, #0]
 800443a:	2b2e      	cmp	r3, #46	; 0x2e
 800443c:	d10c      	bne.n	8004458 <_svfiprintf_r+0x130>
 800443e:	7863      	ldrb	r3, [r4, #1]
 8004440:	2b2a      	cmp	r3, #42	; 0x2a
 8004442:	d135      	bne.n	80044b0 <_svfiprintf_r+0x188>
 8004444:	9b03      	ldr	r3, [sp, #12]
 8004446:	1d1a      	adds	r2, r3, #4
 8004448:	681b      	ldr	r3, [r3, #0]
 800444a:	9203      	str	r2, [sp, #12]
 800444c:	2b00      	cmp	r3, #0
 800444e:	bfb8      	it	lt
 8004450:	f04f 33ff 	movlt.w	r3, #4294967295
 8004454:	3402      	adds	r4, #2
 8004456:	9305      	str	r3, [sp, #20]
 8004458:	f8df a0c8 	ldr.w	sl, [pc, #200]	; 8004524 <_svfiprintf_r+0x1fc>
 800445c:	7821      	ldrb	r1, [r4, #0]
 800445e:	2203      	movs	r2, #3
 8004460:	4650      	mov	r0, sl
 8004462:	f7fb fee5 	bl	8000230 <memchr>
 8004466:	b140      	cbz	r0, 800447a <_svfiprintf_r+0x152>
 8004468:	2340      	movs	r3, #64	; 0x40
 800446a:	eba0 000a 	sub.w	r0, r0, sl
 800446e:	fa03 f000 	lsl.w	r0, r3, r0
 8004472:	9b04      	ldr	r3, [sp, #16]
 8004474:	4303      	orrs	r3, r0
 8004476:	3401      	adds	r4, #1
 8004478:	9304      	str	r3, [sp, #16]
 800447a:	f814 1b01 	ldrb.w	r1, [r4], #1
 800447e:	4826      	ldr	r0, [pc, #152]	; (8004518 <_svfiprintf_r+0x1f0>)
 8004480:	f88d 1028 	strb.w	r1, [sp, #40]	; 0x28
 8004484:	2206      	movs	r2, #6
 8004486:	f7fb fed3 	bl	8000230 <memchr>
 800448a:	2800      	cmp	r0, #0
 800448c:	d038      	beq.n	8004500 <_svfiprintf_r+0x1d8>
 800448e:	4b23      	ldr	r3, [pc, #140]	; (800451c <_svfiprintf_r+0x1f4>)
 8004490:	bb1b      	cbnz	r3, 80044da <_svfiprintf_r+0x1b2>
 8004492:	9b03      	ldr	r3, [sp, #12]
 8004494:	3307      	adds	r3, #7
 8004496:	f023 0307 	bic.w	r3, r3, #7
 800449a:	3308      	adds	r3, #8
 800449c:	9303      	str	r3, [sp, #12]
 800449e:	9b09      	ldr	r3, [sp, #36]	; 0x24
 80044a0:	4433      	add	r3, r6
 80044a2:	9309      	str	r3, [sp, #36]	; 0x24
 80044a4:	e767      	b.n	8004376 <_svfiprintf_r+0x4e>
 80044a6:	fb0c 3202 	mla	r2, ip, r2, r3
 80044aa:	460c      	mov	r4, r1
 80044ac:	2001      	movs	r0, #1
 80044ae:	e7a5      	b.n	80043fc <_svfiprintf_r+0xd4>
 80044b0:	2300      	movs	r3, #0
 80044b2:	3401      	adds	r4, #1
 80044b4:	9305      	str	r3, [sp, #20]
 80044b6:	4619      	mov	r1, r3
 80044b8:	f04f 0c0a 	mov.w	ip, #10
 80044bc:	4620      	mov	r0, r4
 80044be:	f810 2b01 	ldrb.w	r2, [r0], #1
 80044c2:	3a30      	subs	r2, #48	; 0x30
 80044c4:	2a09      	cmp	r2, #9
 80044c6:	d903      	bls.n	80044d0 <_svfiprintf_r+0x1a8>
 80044c8:	2b00      	cmp	r3, #0
 80044ca:	d0c5      	beq.n	8004458 <_svfiprintf_r+0x130>
 80044cc:	9105      	str	r1, [sp, #20]
 80044ce:	e7c3      	b.n	8004458 <_svfiprintf_r+0x130>
 80044d0:	fb0c 2101 	mla	r1, ip, r1, r2
 80044d4:	4604      	mov	r4, r0
 80044d6:	2301      	movs	r3, #1
 80044d8:	e7f0      	b.n	80044bc <_svfiprintf_r+0x194>
 80044da:	ab03      	add	r3, sp, #12
 80044dc:	9300      	str	r3, [sp, #0]
 80044de:	462a      	mov	r2, r5
 80044e0:	4b0f      	ldr	r3, [pc, #60]	; (8004520 <_svfiprintf_r+0x1f8>)
 80044e2:	a904      	add	r1, sp, #16
 80044e4:	4638      	mov	r0, r7
 80044e6:	f3af 8000 	nop.w
 80044ea:	1c42      	adds	r2, r0, #1
 80044ec:	4606      	mov	r6, r0
 80044ee:	d1d6      	bne.n	800449e <_svfiprintf_r+0x176>
 80044f0:	89ab      	ldrh	r3, [r5, #12]
 80044f2:	065b      	lsls	r3, r3, #25
 80044f4:	f53f af2c 	bmi.w	8004350 <_svfiprintf_r+0x28>
 80044f8:	9809      	ldr	r0, [sp, #36]	; 0x24
 80044fa:	b01d      	add	sp, #116	; 0x74
 80044fc:	e8bd 8ff0 	ldmia.w	sp!, {r4, r5, r6, r7, r8, r9, sl, fp, pc}
 8004500:	ab03      	add	r3, sp, #12
 8004502:	9300      	str	r3, [sp, #0]
 8004504:	462a      	mov	r2, r5
 8004506:	4b06      	ldr	r3, [pc, #24]	; (8004520 <_svfiprintf_r+0x1f8>)
 8004508:	a904      	add	r1, sp, #16
 800450a:	4638      	mov	r0, r7
 800450c:	f000 f87a 	bl	8004604 <_printf_i>
 8004510:	e7eb      	b.n	80044ea <_svfiprintf_r+0x1c2>
 8004512:	bf00      	nop
 8004514:	08004b7c 	.word	0x08004b7c
 8004518:	08004b86 	.word	0x08004b86
 800451c:	00000000 	.word	0x00000000
 8004520:	08004271 	.word	0x08004271
 8004524:	08004b82 	.word	0x08004b82

08004528 <_printf_common>:
 8004528:	e92d 47f0 	stmdb	sp!, {r4, r5, r6, r7, r8, r9, sl, lr}
 800452c:	4616      	mov	r6, r2
 800452e:	4699      	mov	r9, r3
 8004530:	688a      	ldr	r2, [r1, #8]
 8004532:	690b      	ldr	r3, [r1, #16]
 8004534:	f8dd 8020 	ldr.w	r8, [sp, #32]
 8004538:	4293      	cmp	r3, r2
 800453a:	bfb8      	it	lt
 800453c:	4613      	movlt	r3, r2
 800453e:	6033      	str	r3, [r6, #0]
 8004540:	f891 2043 	ldrb.w	r2, [r1, #67]	; 0x43
 8004544:	4607      	mov	r7, r0
 8004546:	460c      	mov	r4, r1
 8004548:	b10a      	cbz	r2, 800454e <_printf_common+0x26>
 800454a:	3301      	adds	r3, #1
 800454c:	6033      	str	r3, [r6, #0]
 800454e:	6823      	ldr	r3, [r4, #0]
 8004550:	0699      	lsls	r1, r3, #26
 8004552:	bf42      	ittt	mi
 8004554:	6833      	ldrmi	r3, [r6, #0]
 8004556:	3302      	addmi	r3, #2
 8004558:	6033      	strmi	r3, [r6, #0]
 800455a:	6825      	ldr	r5, [r4, #0]
 800455c:	f015 0506 	ands.w	r5, r5, #6
 8004560:	d106      	bne.n	8004570 <_printf_common+0x48>
 8004562:	f104 0a19 	add.w	sl, r4, #25
 8004566:	68e3      	ldr	r3, [r4, #12]
 8004568:	6832      	ldr	r2, [r6, #0]
 800456a:	1a9b      	subs	r3, r3, r2
 800456c:	42ab      	cmp	r3, r5
 800456e:	dc26      	bgt.n	80045be <_printf_common+0x96>
 8004570:	f894 2043 	ldrb.w	r2, [r4, #67]	; 0x43
 8004574:	1e13      	subs	r3, r2, #0
 8004576:	6822      	ldr	r2, [r4, #0]
 8004578:	bf18      	it	ne
 800457a:	2301      	movne	r3, #1
 800457c:	0692      	lsls	r2, r2, #26
 800457e:	d42b      	bmi.n	80045d8 <_printf_common+0xb0>
 8004580:	f104 0243 	add.w	r2, r4, #67	; 0x43
 8004584:	4649      	mov	r1, r9
 8004586:	4638      	mov	r0, r7
 8004588:	47c0      	blx	r8
 800458a:	3001      	adds	r0, #1
 800458c:	d01e      	beq.n	80045cc <_printf_common+0xa4>
 800458e:	6823      	ldr	r3, [r4, #0]
 8004590:	68e5      	ldr	r5, [r4, #12]
 8004592:	6832      	ldr	r2, [r6, #0]
 8004594:	f003 0306 	and.w	r3, r3, #6
 8004598:	2b04      	cmp	r3, #4
 800459a:	bf08      	it	eq
 800459c:	1aad      	subeq	r5, r5, r2
 800459e:	68a3      	ldr	r3, [r4, #8]
 80045a0:	6922      	ldr	r2, [r4, #16]
 80045a2:	bf0c      	ite	eq
 80045a4:	ea25 75e5 	biceq.w	r5, r5, r5, asr #31
 80045a8:	2500      	movne	r5, #0
 80045aa:	4293      	cmp	r3, r2
 80045ac:	bfc4      	itt	gt
 80045ae:	1a9b      	subgt	r3, r3, r2
 80045b0:	18ed      	addgt	r5, r5, r3
 80045b2:	2600      	movs	r6, #0
 80045b4:	341a      	adds	r4, #26
 80045b6:	42b5      	cmp	r5, r6
 80045b8:	d11a      	bne.n	80045f0 <_printf_common+0xc8>
 80045ba:	2000      	movs	r0, #0
 80045bc:	e008      	b.n	80045d0 <_printf_common+0xa8>
 80045be:	2301      	movs	r3, #1
 80045c0:	4652      	mov	r2, sl
 80045c2:	4649      	mov	r1, r9
 80045c4:	4638      	mov	r0, r7
 80045c6:	47c0      	blx	r8
 80045c8:	3001      	adds	r0, #1
 80045ca:	d103      	bne.n	80045d4 <_printf_common+0xac>
 80045cc:	f04f 30ff 	mov.w	r0, #4294967295
 80045d0:	e8bd 87f0 	ldmia.w	sp!, {r4, r5, r6, r7, r8, r9, sl, pc}
 80045d4:	3501      	adds	r5, #1
 80045d6:	e7c6      	b.n	8004566 <_printf_common+0x3e>
 80045d8:	18e1      	adds	r1, r4, r3
 80045da:	1c5a      	adds	r2, r3, #1
 80045dc:	2030      	movs	r0, #48	; 0x30
 80045de:	f881 0043 	strb.w	r0, [r1, #67]	; 0x43
 80045e2:	4422      	add	r2, r4
 80045e4:	f894 1045 	ldrb.w	r1, [r4, #69]	; 0x45
 80045e8:	f882 1043 	strb.w	r1, [r2, #67]	; 0x43
 80045ec:	3302      	adds	r3, #2
 80045ee:	e7c7      	b.n	8004580 <_printf_common+0x58>
 80045f0:	2301      	movs	r3, #1
 80045f2:	4622      	mov	r2, r4
 80045f4:	4649      	mov	r1, r9
 80045f6:	4638      	mov	r0, r7
 80045f8:	47c0      	blx	r8
 80045fa:	3001      	adds	r0, #1
 80045fc:	d0e6      	beq.n	80045cc <_printf_common+0xa4>
 80045fe:	3601      	adds	r6, #1
 8004600:	e7d9      	b.n	80045b6 <_printf_common+0x8e>
	...

08004604 <_printf_i>:
 8004604:	e92d 47ff 	stmdb	sp!, {r0, r1, r2, r3, r4, r5, r6, r7, r8, r9, sl, lr}
 8004608:	460c      	mov	r4, r1
 800460a:	4691      	mov	r9, r2
 800460c:	7e27      	ldrb	r7, [r4, #24]
 800460e:	990c      	ldr	r1, [sp, #48]	; 0x30
 8004610:	2f78      	cmp	r7, #120	; 0x78
 8004612:	4680      	mov	r8, r0
 8004614:	469a      	mov	sl, r3
 8004616:	f104 0243 	add.w	r2, r4, #67	; 0x43
 800461a:	d807      	bhi.n	800462c <_printf_i+0x28>
 800461c:	2f62      	cmp	r7, #98	; 0x62
 800461e:	d80a      	bhi.n	8004636 <_printf_i+0x32>
 8004620:	2f00      	cmp	r7, #0
 8004622:	f000 80d8 	beq.w	80047d6 <_printf_i+0x1d2>
 8004626:	2f58      	cmp	r7, #88	; 0x58
 8004628:	f000 80a3 	beq.w	8004772 <_printf_i+0x16e>
 800462c:	f104 0642 	add.w	r6, r4, #66	; 0x42
 8004630:	f884 7042 	strb.w	r7, [r4, #66]	; 0x42
 8004634:	e03a      	b.n	80046ac <_printf_i+0xa8>
 8004636:	f1a7 0363 	sub.w	r3, r7, #99	; 0x63
 800463a:	2b15      	cmp	r3, #21
 800463c:	d8f6      	bhi.n	800462c <_printf_i+0x28>
 800463e:	a001      	add	r0, pc, #4	; (adr r0, 8004644 <_printf_i+0x40>)
 8004640:	f850 f023 	ldr.w	pc, [r0, r3, lsl #2]
 8004644:	0800469d 	.word	0x0800469d
 8004648:	080046b1 	.word	0x080046b1
 800464c:	0800462d 	.word	0x0800462d
 8004650:	0800462d 	.word	0x0800462d
 8004654:	0800462d 	.word	0x0800462d
 8004658:	0800462d 	.word	0x0800462d
 800465c:	080046b1 	.word	0x080046b1
 8004660:	0800462d 	.word	0x0800462d
 8004664:	0800462d 	.word	0x0800462d
 8004668:	0800462d 	.word	0x0800462d
 800466c:	0800462d 	.word	0x0800462d
 8004670:	080047bd 	.word	0x080047bd
 8004674:	080046e1 	.word	0x080046e1
 8004678:	0800479f 	.word	0x0800479f
 800467c:	0800462d 	.word	0x0800462d
 8004680:	0800462d 	.word	0x0800462d
 8004684:	080047df 	.word	0x080047df
 8004688:	0800462d 	.word	0x0800462d
 800468c:	080046e1 	.word	0x080046e1
 8004690:	0800462d 	.word	0x0800462d
 8004694:	0800462d 	.word	0x0800462d
 8004698:	080047a7 	.word	0x080047a7
 800469c:	680b      	ldr	r3, [r1, #0]
 800469e:	1d1a      	adds	r2, r3, #4
 80046a0:	681b      	ldr	r3, [r3, #0]
 80046a2:	600a      	str	r2, [r1, #0]
 80046a4:	f104 0642 	add.w	r6, r4, #66	; 0x42
 80046a8:	f884 3042 	strb.w	r3, [r4, #66]	; 0x42
 80046ac:	2301      	movs	r3, #1
 80046ae:	e0a3      	b.n	80047f8 <_printf_i+0x1f4>
 80046b0:	6825      	ldr	r5, [r4, #0]
 80046b2:	6808      	ldr	r0, [r1, #0]
 80046b4:	062e      	lsls	r6, r5, #24
 80046b6:	f100 0304 	add.w	r3, r0, #4
 80046ba:	d50a      	bpl.n	80046d2 <_printf_i+0xce>
 80046bc:	6805      	ldr	r5, [r0, #0]
 80046be:	600b      	str	r3, [r1, #0]
 80046c0:	2d00      	cmp	r5, #0
 80046c2:	da03      	bge.n	80046cc <_printf_i+0xc8>
 80046c4:	232d      	movs	r3, #45	; 0x2d
 80046c6:	426d      	negs	r5, r5
 80046c8:	f884 3043 	strb.w	r3, [r4, #67]	; 0x43
 80046cc:	485e      	ldr	r0, [pc, #376]	; (8004848 <_printf_i+0x244>)
 80046ce:	230a      	movs	r3, #10
 80046d0:	e019      	b.n	8004706 <_printf_i+0x102>
 80046d2:	f015 0f40 	tst.w	r5, #64	; 0x40
 80046d6:	6805      	ldr	r5, [r0, #0]
 80046d8:	600b      	str	r3, [r1, #0]
 80046da:	bf18      	it	ne
 80046dc:	b22d      	sxthne	r5, r5
 80046de:	e7ef      	b.n	80046c0 <_printf_i+0xbc>
 80046e0:	680b      	ldr	r3, [r1, #0]
 80046e2:	6825      	ldr	r5, [r4, #0]
 80046e4:	1d18      	adds	r0, r3, #4
 80046e6:	6008      	str	r0, [r1, #0]
 80046e8:	0628      	lsls	r0, r5, #24
 80046ea:	d501      	bpl.n	80046f0 <_printf_i+0xec>
 80046ec:	681d      	ldr	r5, [r3, #0]
 80046ee:	e002      	b.n	80046f6 <_printf_i+0xf2>
 80046f0:	0669      	lsls	r1, r5, #25
 80046f2:	d5fb      	bpl.n	80046ec <_printf_i+0xe8>
 80046f4:	881d      	ldrh	r5, [r3, #0]
 80046f6:	4854      	ldr	r0, [pc, #336]	; (8004848 <_printf_i+0x244>)
 80046f8:	2f6f      	cmp	r7, #111	; 0x6f
 80046fa:	bf0c      	ite	eq
 80046fc:	2308      	moveq	r3, #8
 80046fe:	230a      	movne	r3, #10
 8004700:	2100      	movs	r1, #0
 8004702:	f884 1043 	strb.w	r1, [r4, #67]	; 0x43
 8004706:	6866      	ldr	r6, [r4, #4]
 8004708:	60a6      	str	r6, [r4, #8]
 800470a:	2e00      	cmp	r6, #0
 800470c:	bfa2      	ittt	ge
 800470e:	6821      	ldrge	r1, [r4, #0]
 8004710:	f021 0104 	bicge.w	r1, r1, #4
 8004714:	6021      	strge	r1, [r4, #0]
 8004716:	b90d      	cbnz	r5, 800471c <_printf_i+0x118>
 8004718:	2e00      	cmp	r6, #0
 800471a:	d04d      	beq.n	80047b8 <_printf_i+0x1b4>
 800471c:	4616      	mov	r6, r2
 800471e:	fbb5 f1f3 	udiv	r1, r5, r3
 8004722:	fb03 5711 	mls	r7, r3, r1, r5
 8004726:	5dc7      	ldrb	r7, [r0, r7]
 8004728:	f806 7d01 	strb.w	r7, [r6, #-1]!
 800472c:	462f      	mov	r7, r5
 800472e:	42bb      	cmp	r3, r7
 8004730:	460d      	mov	r5, r1
 8004732:	d9f4      	bls.n	800471e <_printf_i+0x11a>
 8004734:	2b08      	cmp	r3, #8
 8004736:	d10b      	bne.n	8004750 <_printf_i+0x14c>
 8004738:	6823      	ldr	r3, [r4, #0]
 800473a:	07df      	lsls	r7, r3, #31
 800473c:	d508      	bpl.n	8004750 <_printf_i+0x14c>
 800473e:	6923      	ldr	r3, [r4, #16]
 8004740:	6861      	ldr	r1, [r4, #4]
 8004742:	4299      	cmp	r1, r3
 8004744:	bfde      	ittt	le
 8004746:	2330      	movle	r3, #48	; 0x30
 8004748:	f806 3c01 	strble.w	r3, [r6, #-1]
 800474c:	f106 36ff 	addle.w	r6, r6, #4294967295
 8004750:	1b92      	subs	r2, r2, r6
 8004752:	6122      	str	r2, [r4, #16]
 8004754:	f8cd a000 	str.w	sl, [sp]
 8004758:	464b      	mov	r3, r9
 800475a:	aa03      	add	r2, sp, #12
 800475c:	4621      	mov	r1, r4
 800475e:	4640      	mov	r0, r8
 8004760:	f7ff fee2 	bl	8004528 <_printf_common>
 8004764:	3001      	adds	r0, #1
 8004766:	d14c      	bne.n	8004802 <_printf_i+0x1fe>
 8004768:	f04f 30ff 	mov.w	r0, #4294967295
 800476c:	b004      	add	sp, #16
 800476e:	e8bd 87f0 	ldmia.w	sp!, {r4, r5, r6, r7, r8, r9, sl, pc}
 8004772:	4835      	ldr	r0, [pc, #212]	; (8004848 <_printf_i+0x244>)
 8004774:	f884 7045 	strb.w	r7, [r4, #69]	; 0x45
 8004778:	6823      	ldr	r3, [r4, #0]
 800477a:	680e      	ldr	r6, [r1, #0]
 800477c:	061f      	lsls	r7, r3, #24
 800477e:	f856 5b04 	ldr.w	r5, [r6], #4
 8004782:	600e      	str	r6, [r1, #0]
 8004784:	d514      	bpl.n	80047b0 <_printf_i+0x1ac>
 8004786:	07d9      	lsls	r1, r3, #31
 8004788:	bf44      	itt	mi
 800478a:	f043 0320 	orrmi.w	r3, r3, #32
 800478e:	6023      	strmi	r3, [r4, #0]
 8004790:	b91d      	cbnz	r5, 800479a <_printf_i+0x196>
 8004792:	6823      	ldr	r3, [r4, #0]
 8004794:	f023 0320 	bic.w	r3, r3, #32
 8004798:	6023      	str	r3, [r4, #0]
 800479a:	2310      	movs	r3, #16
 800479c:	e7b0      	b.n	8004700 <_printf_i+0xfc>
 800479e:	6823      	ldr	r3, [r4, #0]
 80047a0:	f043 0320 	orr.w	r3, r3, #32
 80047a4:	6023      	str	r3, [r4, #0]
 80047a6:	2378      	movs	r3, #120	; 0x78
 80047a8:	4828      	ldr	r0, [pc, #160]	; (800484c <_printf_i+0x248>)
 80047aa:	f884 3045 	strb.w	r3, [r4, #69]	; 0x45
 80047ae:	e7e3      	b.n	8004778 <_printf_i+0x174>
 80047b0:	065e      	lsls	r6, r3, #25
 80047b2:	bf48      	it	mi
 80047b4:	b2ad      	uxthmi	r5, r5
 80047b6:	e7e6      	b.n	8004786 <_printf_i+0x182>
 80047b8:	4616      	mov	r6, r2
 80047ba:	e7bb      	b.n	8004734 <_printf_i+0x130>
 80047bc:	680b      	ldr	r3, [r1, #0]
 80047be:	6826      	ldr	r6, [r4, #0]
 80047c0:	6960      	ldr	r0, [r4, #20]
 80047c2:	1d1d      	adds	r5, r3, #4
 80047c4:	600d      	str	r5, [r1, #0]
 80047c6:	0635      	lsls	r5, r6, #24
 80047c8:	681b      	ldr	r3, [r3, #0]
 80047ca:	d501      	bpl.n	80047d0 <_printf_i+0x1cc>
 80047cc:	6018      	str	r0, [r3, #0]
 80047ce:	e002      	b.n	80047d6 <_printf_i+0x1d2>
 80047d0:	0671      	lsls	r1, r6, #25
 80047d2:	d5fb      	bpl.n	80047cc <_printf_i+0x1c8>
 80047d4:	8018      	strh	r0, [r3, #0]
 80047d6:	2300      	movs	r3, #0
 80047d8:	6123      	str	r3, [r4, #16]
 80047da:	4616      	mov	r6, r2
 80047dc:	e7ba      	b.n	8004754 <_printf_i+0x150>
 80047de:	680b      	ldr	r3, [r1, #0]
 80047e0:	1d1a      	adds	r2, r3, #4
 80047e2:	600a      	str	r2, [r1, #0]
 80047e4:	681e      	ldr	r6, [r3, #0]
 80047e6:	6862      	ldr	r2, [r4, #4]
 80047e8:	2100      	movs	r1, #0
 80047ea:	4630      	mov	r0, r6
 80047ec:	f7fb fd20 	bl	8000230 <memchr>
 80047f0:	b108      	cbz	r0, 80047f6 <_printf_i+0x1f2>
 80047f2:	1b80      	subs	r0, r0, r6
 80047f4:	6060      	str	r0, [r4, #4]
 80047f6:	6863      	ldr	r3, [r4, #4]
 80047f8:	6123      	str	r3, [r4, #16]
 80047fa:	2300      	movs	r3, #0
 80047fc:	f884 3043 	strb.w	r3, [r4, #67]	; 0x43
 8004800:	e7a8      	b.n	8004754 <_printf_i+0x150>
 8004802:	6923      	ldr	r3, [r4, #16]
 8004804:	4632      	mov	r2, r6
 8004806:	4649      	mov	r1, r9
 8004808:	4640      	mov	r0, r8
 800480a:	47d0      	blx	sl
 800480c:	3001      	adds	r0, #1
 800480e:	d0ab      	beq.n	8004768 <_printf_i+0x164>
 8004810:	6823      	ldr	r3, [r4, #0]
 8004812:	079b      	lsls	r3, r3, #30
 8004814:	d413      	bmi.n	800483e <_printf_i+0x23a>
 8004816:	68e0      	ldr	r0, [r4, #12]
 8004818:	9b03      	ldr	r3, [sp, #12]
 800481a:	4298      	cmp	r0, r3
 800481c:	bfb8      	it	lt
 800481e:	4618      	movlt	r0, r3
 8004820:	e7a4      	b.n	800476c <_printf_i+0x168>
 8004822:	2301      	movs	r3, #1
 8004824:	4632      	mov	r2, r6
 8004826:	4649      	mov	r1, r9
 8004828:	4640      	mov	r0, r8
 800482a:	47d0      	blx	sl
 800482c:	3001      	adds	r0, #1
 800482e:	d09b      	beq.n	8004768 <_printf_i+0x164>
 8004830:	3501      	adds	r5, #1
 8004832:	68e3      	ldr	r3, [r4, #12]
 8004834:	9903      	ldr	r1, [sp, #12]
 8004836:	1a5b      	subs	r3, r3, r1
 8004838:	42ab      	cmp	r3, r5
 800483a:	dcf2      	bgt.n	8004822 <_printf_i+0x21e>
 800483c:	e7eb      	b.n	8004816 <_printf_i+0x212>
 800483e:	2500      	movs	r5, #0
 8004840:	f104 0619 	add.w	r6, r4, #25
 8004844:	e7f5      	b.n	8004832 <_printf_i+0x22e>
 8004846:	bf00      	nop
 8004848:	08004b8d 	.word	0x08004b8d
 800484c:	08004b9e 	.word	0x08004b9e

08004850 <memcpy>:
 8004850:	440a      	add	r2, r1
 8004852:	4291      	cmp	r1, r2
 8004854:	f100 33ff 	add.w	r3, r0, #4294967295
 8004858:	d100      	bne.n	800485c <memcpy+0xc>
 800485a:	4770      	bx	lr
 800485c:	b510      	push	{r4, lr}
 800485e:	f811 4b01 	ldrb.w	r4, [r1], #1
 8004862:	f803 4f01 	strb.w	r4, [r3, #1]!
 8004866:	4291      	cmp	r1, r2
 8004868:	d1f9      	bne.n	800485e <memcpy+0xe>
 800486a:	bd10      	pop	{r4, pc}

0800486c <memmove>:
 800486c:	4288      	cmp	r0, r1
 800486e:	b510      	push	{r4, lr}
 8004870:	eb01 0402 	add.w	r4, r1, r2
 8004874:	d902      	bls.n	800487c <memmove+0x10>
 8004876:	4284      	cmp	r4, r0
 8004878:	4623      	mov	r3, r4
 800487a:	d807      	bhi.n	800488c <memmove+0x20>
 800487c:	1e43      	subs	r3, r0, #1
 800487e:	42a1      	cmp	r1, r4
 8004880:	d008      	beq.n	8004894 <memmove+0x28>
 8004882:	f811 2b01 	ldrb.w	r2, [r1], #1
 8004886:	f803 2f01 	strb.w	r2, [r3, #1]!
 800488a:	e7f8      	b.n	800487e <memmove+0x12>
 800488c:	4402      	add	r2, r0
 800488e:	4601      	mov	r1, r0
 8004890:	428a      	cmp	r2, r1
 8004892:	d100      	bne.n	8004896 <memmove+0x2a>
 8004894:	bd10      	pop	{r4, pc}
 8004896:	f813 4d01 	ldrb.w	r4, [r3, #-1]!
 800489a:	f802 4d01 	strb.w	r4, [r2, #-1]!
 800489e:	e7f7      	b.n	8004890 <memmove+0x24>

080048a0 <_free_r>:
 80048a0:	b537      	push	{r0, r1, r2, r4, r5, lr}
 80048a2:	2900      	cmp	r1, #0
 80048a4:	d048      	beq.n	8004938 <_free_r+0x98>
 80048a6:	f851 3c04 	ldr.w	r3, [r1, #-4]
 80048aa:	9001      	str	r0, [sp, #4]
 80048ac:	2b00      	cmp	r3, #0
 80048ae:	f1a1 0404 	sub.w	r4, r1, #4
 80048b2:	bfb8      	it	lt
 80048b4:	18e4      	addlt	r4, r4, r3
 80048b6:	f000 f8d3 	bl	8004a60 <__malloc_lock>
 80048ba:	4a20      	ldr	r2, [pc, #128]	; (800493c <_free_r+0x9c>)
 80048bc:	9801      	ldr	r0, [sp, #4]
 80048be:	6813      	ldr	r3, [r2, #0]
 80048c0:	4615      	mov	r5, r2
 80048c2:	b933      	cbnz	r3, 80048d2 <_free_r+0x32>
 80048c4:	6063      	str	r3, [r4, #4]
 80048c6:	6014      	str	r4, [r2, #0]
 80048c8:	b003      	add	sp, #12
 80048ca:	e8bd 4030 	ldmia.w	sp!, {r4, r5, lr}
 80048ce:	f000 b8cd 	b.w	8004a6c <__malloc_unlock>
 80048d2:	42a3      	cmp	r3, r4
 80048d4:	d90b      	bls.n	80048ee <_free_r+0x4e>
 80048d6:	6821      	ldr	r1, [r4, #0]
 80048d8:	1862      	adds	r2, r4, r1
 80048da:	4293      	cmp	r3, r2
 80048dc:	bf04      	itt	eq
 80048de:	681a      	ldreq	r2, [r3, #0]
 80048e0:	685b      	ldreq	r3, [r3, #4]
 80048e2:	6063      	str	r3, [r4, #4]
 80048e4:	bf04      	itt	eq
 80048e6:	1852      	addeq	r2, r2, r1
 80048e8:	6022      	streq	r2, [r4, #0]
 80048ea:	602c      	str	r4, [r5, #0]
 80048ec:	e7ec      	b.n	80048c8 <_free_r+0x28>
 80048ee:	461a      	mov	r2, r3
 80048f0:	685b      	ldr	r3, [r3, #4]
 80048f2:	b10b      	cbz	r3, 80048f8 <_free_r+0x58>
 80048f4:	42a3      	cmp	r3, r4
 80048f6:	d9fa      	bls.n	80048ee <_free_r+0x4e>
 80048f8:	6811      	ldr	r1, [r2, #0]
 80048fa:	1855      	adds	r5, r2, r1
 80048fc:	42a5      	cmp	r5, r4
 80048fe:	d10b      	bne.n	8004918 <_free_r+0x78>
 8004900:	6824      	ldr	r4, [r4, #0]
 8004902:	4421      	add	r1, r4
 8004904:	1854      	adds	r4, r2, r1
 8004906:	42a3      	cmp	r3, r4
 8004908:	6011      	str	r1, [r2, #0]
 800490a:	d1dd      	bne.n	80048c8 <_free_r+0x28>
 800490c:	681c      	ldr	r4, [r3, #0]
 800490e:	685b      	ldr	r3, [r3, #4]
 8004910:	6053      	str	r3, [r2, #4]
 8004912:	4421      	add	r1, r4
 8004914:	6011      	str	r1, [r2, #0]
 8004916:	e7d7      	b.n	80048c8 <_free_r+0x28>
 8004918:	d902      	bls.n	8004920 <_free_r+0x80>
 800491a:	230c      	movs	r3, #12
 800491c:	6003      	str	r3, [r0, #0]
 800491e:	e7d3      	b.n	80048c8 <_free_r+0x28>
 8004920:	6825      	ldr	r5, [r4, #0]
 8004922:	1961      	adds	r1, r4, r5
 8004924:	428b      	cmp	r3, r1
 8004926:	bf04      	itt	eq
 8004928:	6819      	ldreq	r1, [r3, #0]
 800492a:	685b      	ldreq	r3, [r3, #4]
 800492c:	6063      	str	r3, [r4, #4]
 800492e:	bf04      	itt	eq
 8004930:	1949      	addeq	r1, r1, r5
 8004932:	6021      	streq	r1, [r4, #0]
 8004934:	6054      	str	r4, [r2, #4]
 8004936:	e7c7      	b.n	80048c8 <_free_r+0x28>
 8004938:	b003      	add	sp, #12
 800493a:	bd30      	pop	{r4, r5, pc}
 800493c:	20000194 	.word	0x20000194

08004940 <_malloc_r>:
 8004940:	b5f8      	push	{r3, r4, r5, r6, r7, lr}
 8004942:	1ccd      	adds	r5, r1, #3
 8004944:	f025 0503 	bic.w	r5, r5, #3
 8004948:	3508      	adds	r5, #8
 800494a:	2d0c      	cmp	r5, #12
 800494c:	bf38      	it	cc
 800494e:	250c      	movcc	r5, #12
 8004950:	2d00      	cmp	r5, #0
 8004952:	4606      	mov	r6, r0
 8004954:	db01      	blt.n	800495a <_malloc_r+0x1a>
 8004956:	42a9      	cmp	r1, r5
 8004958:	d903      	bls.n	8004962 <_malloc_r+0x22>
 800495a:	230c      	movs	r3, #12
 800495c:	6033      	str	r3, [r6, #0]
 800495e:	2000      	movs	r0, #0
 8004960:	bdf8      	pop	{r3, r4, r5, r6, r7, pc}
 8004962:	f000 f87d 	bl	8004a60 <__malloc_lock>
 8004966:	4921      	ldr	r1, [pc, #132]	; (80049ec <_malloc_r+0xac>)
 8004968:	680a      	ldr	r2, [r1, #0]
 800496a:	4614      	mov	r4, r2
 800496c:	b99c      	cbnz	r4, 8004996 <_malloc_r+0x56>
 800496e:	4f20      	ldr	r7, [pc, #128]	; (80049f0 <_malloc_r+0xb0>)
 8004970:	683b      	ldr	r3, [r7, #0]
 8004972:	b923      	cbnz	r3, 800497e <_malloc_r+0x3e>
 8004974:	4621      	mov	r1, r4
 8004976:	4630      	mov	r0, r6
 8004978:	f000 f862 	bl	8004a40 <_sbrk_r>
 800497c:	6038      	str	r0, [r7, #0]
 800497e:	4629      	mov	r1, r5
 8004980:	4630      	mov	r0, r6
 8004982:	f000 f85d 	bl	8004a40 <_sbrk_r>
 8004986:	1c43      	adds	r3, r0, #1
 8004988:	d123      	bne.n	80049d2 <_malloc_r+0x92>
 800498a:	230c      	movs	r3, #12
 800498c:	6033      	str	r3, [r6, #0]
 800498e:	4630      	mov	r0, r6
 8004990:	f000 f86c 	bl	8004a6c <__malloc_unlock>
 8004994:	e7e3      	b.n	800495e <_malloc_r+0x1e>
 8004996:	6823      	ldr	r3, [r4, #0]
 8004998:	1b5b      	subs	r3, r3, r5
 800499a:	d417      	bmi.n	80049cc <_malloc_r+0x8c>
 800499c:	2b0b      	cmp	r3, #11
 800499e:	d903      	bls.n	80049a8 <_malloc_r+0x68>
 80049a0:	6023      	str	r3, [r4, #0]
 80049a2:	441c      	add	r4, r3
 80049a4:	6025      	str	r5, [r4, #0]
 80049a6:	e004      	b.n	80049b2 <_malloc_r+0x72>
 80049a8:	6863      	ldr	r3, [r4, #4]
 80049aa:	42a2      	cmp	r2, r4
 80049ac:	bf0c      	ite	eq
 80049ae:	600b      	streq	r3, [r1, #0]
 80049b0:	6053      	strne	r3, [r2, #4]
 80049b2:	4630      	mov	r0, r6
 80049b4:	f000 f85a 	bl	8004a6c <__malloc_unlock>
 80049b8:	f104 000b 	add.w	r0, r4, #11
 80049bc:	1d23      	adds	r3, r4, #4
 80049be:	f020 0007 	bic.w	r0, r0, #7
 80049c2:	1ac2      	subs	r2, r0, r3
 80049c4:	d0cc      	beq.n	8004960 <_malloc_r+0x20>
 80049c6:	1a1b      	subs	r3, r3, r0
 80049c8:	50a3      	str	r3, [r4, r2]
 80049ca:	e7c9      	b.n	8004960 <_malloc_r+0x20>
 80049cc:	4622      	mov	r2, r4
 80049ce:	6864      	ldr	r4, [r4, #4]
 80049d0:	e7cc      	b.n	800496c <_malloc_r+0x2c>
 80049d2:	1cc4      	adds	r4, r0, #3
 80049d4:	f024 0403 	bic.w	r4, r4, #3
 80049d8:	42a0      	cmp	r0, r4
 80049da:	d0e3      	beq.n	80049a4 <_malloc_r+0x64>
 80049dc:	1a21      	subs	r1, r4, r0
 80049de:	4630      	mov	r0, r6
 80049e0:	f000 f82e 	bl	8004a40 <_sbrk_r>
 80049e4:	3001      	adds	r0, #1
 80049e6:	d1dd      	bne.n	80049a4 <_malloc_r+0x64>
 80049e8:	e7cf      	b.n	800498a <_malloc_r+0x4a>
 80049ea:	bf00      	nop
 80049ec:	20000194 	.word	0x20000194
 80049f0:	20000198 	.word	0x20000198

080049f4 <_realloc_r>:
 80049f4:	b5f8      	push	{r3, r4, r5, r6, r7, lr}
 80049f6:	4607      	mov	r7, r0
 80049f8:	4614      	mov	r4, r2
 80049fa:	460e      	mov	r6, r1
 80049fc:	b921      	cbnz	r1, 8004a08 <_realloc_r+0x14>
 80049fe:	e8bd 40f8 	ldmia.w	sp!, {r3, r4, r5, r6, r7, lr}
 8004a02:	4611      	mov	r1, r2
 8004a04:	f7ff bf9c 	b.w	8004940 <_malloc_r>
 8004a08:	b922      	cbnz	r2, 8004a14 <_realloc_r+0x20>
 8004a0a:	f7ff ff49 	bl	80048a0 <_free_r>
 8004a0e:	4625      	mov	r5, r4
 8004a10:	4628      	mov	r0, r5
 8004a12:	bdf8      	pop	{r3, r4, r5, r6, r7, pc}
 8004a14:	f000 f830 	bl	8004a78 <_malloc_usable_size_r>
 8004a18:	42a0      	cmp	r0, r4
 8004a1a:	d20f      	bcs.n	8004a3c <_realloc_r+0x48>
 8004a1c:	4621      	mov	r1, r4
 8004a1e:	4638      	mov	r0, r7
 8004a20:	f7ff ff8e 	bl	8004940 <_malloc_r>
 8004a24:	4605      	mov	r5, r0
 8004a26:	2800      	cmp	r0, #0
 8004a28:	d0f2      	beq.n	8004a10 <_realloc_r+0x1c>
 8004a2a:	4631      	mov	r1, r6
 8004a2c:	4622      	mov	r2, r4
 8004a2e:	f7ff ff0f 	bl	8004850 <memcpy>
 8004a32:	4631      	mov	r1, r6
 8004a34:	4638      	mov	r0, r7
 8004a36:	f7ff ff33 	bl	80048a0 <_free_r>
 8004a3a:	e7e9      	b.n	8004a10 <_realloc_r+0x1c>
 8004a3c:	4635      	mov	r5, r6
 8004a3e:	e7e7      	b.n	8004a10 <_realloc_r+0x1c>

08004a40 <_sbrk_r>:
 8004a40:	b538      	push	{r3, r4, r5, lr}
 8004a42:	4d06      	ldr	r5, [pc, #24]	; (8004a5c <_sbrk_r+0x1c>)
 8004a44:	2300      	movs	r3, #0
 8004a46:	4604      	mov	r4, r0
 8004a48:	4608      	mov	r0, r1
 8004a4a:	602b      	str	r3, [r5, #0]
 8004a4c:	f7fc ffae 	bl	80019ac <_sbrk>
 8004a50:	1c43      	adds	r3, r0, #1
 8004a52:	d102      	bne.n	8004a5a <_sbrk_r+0x1a>
 8004a54:	682b      	ldr	r3, [r5, #0]
 8004a56:	b103      	cbz	r3, 8004a5a <_sbrk_r+0x1a>
 8004a58:	6023      	str	r3, [r4, #0]
 8004a5a:	bd38      	pop	{r3, r4, r5, pc}
 8004a5c:	2000037c 	.word	0x2000037c

08004a60 <__malloc_lock>:
 8004a60:	4801      	ldr	r0, [pc, #4]	; (8004a68 <__malloc_lock+0x8>)
 8004a62:	f000 b811 	b.w	8004a88 <__retarget_lock_acquire_recursive>
 8004a66:	bf00      	nop
 8004a68:	20000384 	.word	0x20000384

08004a6c <__malloc_unlock>:
 8004a6c:	4801      	ldr	r0, [pc, #4]	; (8004a74 <__malloc_unlock+0x8>)
 8004a6e:	f000 b80c 	b.w	8004a8a <__retarget_lock_release_recursive>
 8004a72:	bf00      	nop
 8004a74:	20000384 	.word	0x20000384

08004a78 <_malloc_usable_size_r>:
 8004a78:	f851 3c04 	ldr.w	r3, [r1, #-4]
 8004a7c:	1f18      	subs	r0, r3, #4
 8004a7e:	2b00      	cmp	r3, #0
 8004a80:	bfbc      	itt	lt
 8004a82:	580b      	ldrlt	r3, [r1, r0]
 8004a84:	18c0      	addlt	r0, r0, r3
 8004a86:	4770      	bx	lr

08004a88 <__retarget_lock_acquire_recursive>:
 8004a88:	4770      	bx	lr

08004a8a <__retarget_lock_release_recursive>:
 8004a8a:	4770      	bx	lr

08004a8c <_init>:
 8004a8c:	b5f8      	push	{r3, r4, r5, r6, r7, lr}
 8004a8e:	bf00      	nop
 8004a90:	bcf8      	pop	{r3, r4, r5, r6, r7}
 8004a92:	bc08      	pop	{r3}
 8004a94:	469e      	mov	lr, r3
 8004a96:	4770      	bx	lr

08004a98 <_fini>:
 8004a98:	b5f8      	push	{r3, r4, r5, r6, r7, lr}
 8004a9a:	bf00      	nop
 8004a9c:	bcf8      	pop	{r3, r4, r5, r6, r7}
 8004a9e:	bc08      	pop	{r3}
 8004aa0:	469e      	mov	lr, r3
 8004aa2:	4770      	bx	lr
